Archive member included to satisfy reference by file (symbol)

d:/gnu/gcc-arm-none-eabi-7-2017-q4-major-win32/bin/../lib/gcc/arm-none-eabi/7.2.1/../../../../arm-none-eabi/lib/thumb/v7e-m/fpv4-sp/hard\libg_nano.a(lib_a-atoi.o)
                              ./Middlewares/Third_Party/LwIP/src/api/netdb.o (symbol from plugin) (atoi)
d:/gnu/gcc-arm-none-eabi-7-2017-q4-major-win32/bin/../lib/gcc/arm-none-eabi/7.2.1/../../../../arm-none-eabi/lib/thumb/v7e-m/fpv4-sp/hard\libg_nano.a(lib_a-calloc.o)
                              ./Src/can_network.o (symbol from plugin) (calloc)
d:/gnu/gcc-arm-none-eabi-7-2017-q4-major-win32/bin/../lib/gcc/arm-none-eabi/7.2.1/../../../../arm-none-eabi/lib/thumb/v7e-m/fpv4-sp/hard\libg_nano.a(lib_a-exit.o)
                              d:/gnu/gcc-arm-none-eabi-7-2017-q4-major-win32/bin/../lib/gcc/arm-none-eabi/7.2.1/../../../../arm-none-eabi/lib/thumb/v7e-m/fpv4-sp/hard/crt0.o (exit)
d:/gnu/gcc-arm-none-eabi-7-2017-q4-major-win32/bin/../lib/gcc/arm-none-eabi/7.2.1/../../../../arm-none-eabi/lib/thumb/v7e-m/fpv4-sp/hard\libg_nano.a(lib_a-impure.o)
                              d:/gnu/gcc-arm-none-eabi-7-2017-q4-major-win32/bin/../lib/gcc/arm-none-eabi/7.2.1/../../../../arm-none-eabi/lib/thumb/v7e-m/fpv4-sp/hard\libg_nano.a(lib_a-exit.o) (_global_impure_ptr)
d:/gnu/gcc-arm-none-eabi-7-2017-q4-major-win32/bin/../lib/gcc/arm-none-eabi/7.2.1/../../../../arm-none-eabi/lib/thumb/v7e-m/fpv4-sp/hard\libg_nano.a(lib_a-init.o)
                              d:/gnu/gcc-arm-none-eabi-7-2017-q4-major-win32/bin/../lib/gcc/arm-none-eabi/7.2.1/../../../../arm-none-eabi/lib/thumb/v7e-m/fpv4-sp/hard/crt0.o (__libc_init_array)
d:/gnu/gcc-arm-none-eabi-7-2017-q4-major-win32/bin/../lib/gcc/arm-none-eabi/7.2.1/../../../../arm-none-eabi/lib/thumb/v7e-m/fpv4-sp/hard\libg_nano.a(lib_a-lcltime_r.o)
                              ./lib60870-C/src/iec60870/apl/cpXXtime2a.o (symbol from plugin) (localtime_r)
d:/gnu/gcc-arm-none-eabi-7-2017-q4-major-win32/bin/../lib/gcc/arm-none-eabi/7.2.1/../../../../arm-none-eabi/lib/thumb/v7e-m/fpv4-sp/hard\libg_nano.a(lib_a-memcmp.o)
                              ./Src/user_config.o (symbol from plugin) (memcmp)
d:/gnu/gcc-arm-none-eabi-7-2017-q4-major-win32/bin/../lib/gcc/arm-none-eabi/7.2.1/../../../../arm-none-eabi/lib/thumb/v7e-m/fpv4-sp/hard\libg_nano.a(lib_a-memcpy-stub.o)
                              ./lib60870-C/src/hal/socket/freertos/socket_freertos.o (symbol from plugin) (memcpy)
d:/gnu/gcc-arm-none-eabi-7-2017-q4-major-win32/bin/../lib/gcc/arm-none-eabi/7.2.1/../../../../arm-none-eabi/lib/thumb/v7e-m/fpv4-sp/hard\libg_nano.a(lib_a-memset.o)
                              d:/gnu/gcc-arm-none-eabi-7-2017-q4-major-win32/bin/../lib/gcc/arm-none-eabi/7.2.1/../../../../arm-none-eabi/lib/thumb/v7e-m/fpv4-sp/hard/crt0.o (memset)
d:/gnu/gcc-arm-none-eabi-7-2017-q4-major-win32/bin/../lib/gcc/arm-none-eabi/7.2.1/../../../../arm-none-eabi/lib/thumb/v7e-m/fpv4-sp/hard\libg_nano.a(lib_a-month_lengths.o)
                              d:/gnu/gcc-arm-none-eabi-7-2017-q4-major-win32/bin/../lib/gcc/arm-none-eabi/7.2.1/../../../../arm-none-eabi/lib/thumb/v7e-m/fpv4-sp/hard\libg_nano.a(lib_a-lcltime_r.o) (__month_lengths)
d:/gnu/gcc-arm-none-eabi-7-2017-q4-major-win32/bin/../lib/gcc/arm-none-eabi/7.2.1/../../../../arm-none-eabi/lib/thumb/v7e-m/fpv4-sp/hard\libg_nano.a(lib_a-nano-callocr.o)
                              d:/gnu/gcc-arm-none-eabi-7-2017-q4-major-win32/bin/../lib/gcc/arm-none-eabi/7.2.1/../../../../arm-none-eabi/lib/thumb/v7e-m/fpv4-sp/hard\libg_nano.a(lib_a-calloc.o) (_calloc_r)
d:/gnu/gcc-arm-none-eabi-7-2017-q4-major-win32/bin/../lib/gcc/arm-none-eabi/7.2.1/../../../../arm-none-eabi/lib/thumb/v7e-m/fpv4-sp/hard\libg_nano.a(lib_a-nano-mallocr.o)
                              d:/gnu/gcc-arm-none-eabi-7-2017-q4-major-win32/bin/../lib/gcc/arm-none-eabi/7.2.1/../../../../arm-none-eabi/lib/thumb/v7e-m/fpv4-sp/hard\libg_nano.a(lib_a-nano-callocr.o) (_malloc_r)
d:/gnu/gcc-arm-none-eabi-7-2017-q4-major-win32/bin/../lib/gcc/arm-none-eabi/7.2.1/../../../../arm-none-eabi/lib/thumb/v7e-m/fpv4-sp/hard\libg_nano.a(lib_a-printf.o)
                              ./lib60870-C/src/iec60870/t104/t104_slave.o (symbol from plugin) (printf)
d:/gnu/gcc-arm-none-eabi-7-2017-q4-major-win32/bin/../lib/gcc/arm-none-eabi/7.2.1/../../../../arm-none-eabi/lib/thumb/v7e-m/fpv4-sp/hard\libg_nano.a(lib_a-rand.o)
                              ./Middlewares/Third_Party/LwIP/src/core/dns.o (symbol from plugin) (rand)
d:/gnu/gcc-arm-none-eabi-7-2017-q4-major-win32/bin/../lib/gcc/arm-none-eabi/7.2.1/../../../../arm-none-eabi/lib/thumb/v7e-m/fpv4-sp/hard\libg_nano.a(lib_a-realloc.o)
                              ./lib60870-C/src/common/lib_memory.o (symbol from plugin) (realloc)
d:/gnu/gcc-arm-none-eabi-7-2017-q4-major-win32/bin/../lib/gcc/arm-none-eabi/7.2.1/../../../../arm-none-eabi/lib/thumb/v7e-m/fpv4-sp/hard\libg_nano.a(lib_a-sbrkr.o)
                              d:/gnu/gcc-arm-none-eabi-7-2017-q4-major-win32/bin/../lib/gcc/arm-none-eabi/7.2.1/../../../../arm-none-eabi/lib/thumb/v7e-m/fpv4-sp/hard\libg_nano.a(lib_a-nano-mallocr.o) (_sbrk_r)
d:/gnu/gcc-arm-none-eabi-7-2017-q4-major-win32/bin/../lib/gcc/arm-none-eabi/7.2.1/../../../../arm-none-eabi/lib/thumb/v7e-m/fpv4-sp/hard\libg_nano.a(lib_a-sprintf.o)
                              ./lib60870-C/src/hal/socket/freertos/socket_freertos.o (symbol from plugin) (sprintf)
d:/gnu/gcc-arm-none-eabi-7-2017-q4-major-win32/bin/../lib/gcc/arm-none-eabi/7.2.1/../../../../arm-none-eabi/lib/thumb/v7e-m/fpv4-sp/hard\libg_nano.a(lib_a-strcpy.o)
                              ./lib60870-C/src/iec60870/t104/t104_slave.o (symbol from plugin) (strcpy)
d:/gnu/gcc-arm-none-eabi-7-2017-q4-major-win32/bin/../lib/gcc/arm-none-eabi/7.2.1/../../../../arm-none-eabi/lib/thumb/v7e-m/fpv4-sp/hard\libg_nano.a(lib_a-strlen.o)
                              ./lib60870-C/src/iec60870/t104/t104_slave.o (symbol from plugin) (strlen)
d:/gnu/gcc-arm-none-eabi-7-2017-q4-major-win32/bin/../lib/gcc/arm-none-eabi/7.2.1/../../../../arm-none-eabi/lib/thumb/v7e-m/fpv4-sp/hard\libg_nano.a(lib_a-strncmp.o)
                              ./Middlewares/Third_Party/LwIP/src/core/def.o (symbol from plugin) (strncmp)
d:/gnu/gcc-arm-none-eabi-7-2017-q4-major-win32/bin/../lib/gcc/arm-none-eabi/7.2.1/../../../../arm-none-eabi/lib/thumb/v7e-m/fpv4-sp/hard\libg_nano.a(lib_a-strncpy.o)
                              ./lib60870-C/src/iec60870/t104/t104_connection.o (symbol from plugin) (strncpy)
d:/gnu/gcc-arm-none-eabi-7-2017-q4-major-win32/bin/../lib/gcc/arm-none-eabi/7.2.1/../../../../arm-none-eabi/lib/thumb/v7e-m/fpv4-sp/hard\libg_nano.a(lib_a-strtol.o)
                              d:/gnu/gcc-arm-none-eabi-7-2017-q4-major-win32/bin/../lib/gcc/arm-none-eabi/7.2.1/../../../../arm-none-eabi/lib/thumb/v7e-m/fpv4-sp/hard\libg_nano.a(lib_a-atoi.o) (_strtol_r)
d:/gnu/gcc-arm-none-eabi-7-2017-q4-major-win32/bin/../lib/gcc/arm-none-eabi/7.2.1/../../../../arm-none-eabi/lib/thumb/v7e-m/fpv4-sp/hard\libg_nano.a(lib_a-tzcalc_limits.o)
                              d:/gnu/gcc-arm-none-eabi-7-2017-q4-major-win32/bin/../lib/gcc/arm-none-eabi/7.2.1/../../../../arm-none-eabi/lib/thumb/v7e-m/fpv4-sp/hard\libg_nano.a(lib_a-lcltime_r.o) (__tzcalc_limits)
d:/gnu/gcc-arm-none-eabi-7-2017-q4-major-win32/bin/../lib/gcc/arm-none-eabi/7.2.1/../../../../arm-none-eabi/lib/thumb/v7e-m/fpv4-sp/hard\libg_nano.a(lib_a-tzlock.o)
                              d:/gnu/gcc-arm-none-eabi-7-2017-q4-major-win32/bin/../lib/gcc/arm-none-eabi/7.2.1/../../../../arm-none-eabi/lib/thumb/v7e-m/fpv4-sp/hard\libg_nano.a(lib_a-lcltime_r.o) (__tz_lock)
d:/gnu/gcc-arm-none-eabi-7-2017-q4-major-win32/bin/../lib/gcc/arm-none-eabi/7.2.1/../../../../arm-none-eabi/lib/thumb/v7e-m/fpv4-sp/hard\libg_nano.a(lib_a-tzset.o)
                              d:/gnu/gcc-arm-none-eabi-7-2017-q4-major-win32/bin/../lib/gcc/arm-none-eabi/7.2.1/../../../../arm-none-eabi/lib/thumb/v7e-m/fpv4-sp/hard\libg_nano.a(lib_a-lcltime_r.o) (_tzset_unlocked)
d:/gnu/gcc-arm-none-eabi-7-2017-q4-major-win32/bin/../lib/gcc/arm-none-eabi/7.2.1/../../../../arm-none-eabi/lib/thumb/v7e-m/fpv4-sp/hard\libg_nano.a(lib_a-tzset_r.o)
                              d:/gnu/gcc-arm-none-eabi-7-2017-q4-major-win32/bin/../lib/gcc/arm-none-eabi/7.2.1/../../../../arm-none-eabi/lib/thumb/v7e-m/fpv4-sp/hard\libg_nano.a(lib_a-tzset.o) (_tzset_unlocked_r)
d:/gnu/gcc-arm-none-eabi-7-2017-q4-major-win32/bin/../lib/gcc/arm-none-eabi/7.2.1/../../../../arm-none-eabi/lib/thumb/v7e-m/fpv4-sp/hard\libg_nano.a(lib_a-tzvars.o)
                              d:/gnu/gcc-arm-none-eabi-7-2017-q4-major-win32/bin/../lib/gcc/arm-none-eabi/7.2.1/../../../../arm-none-eabi/lib/thumb/v7e-m/fpv4-sp/hard\libg_nano.a(lib_a-tzset_r.o) (_timezone)
d:/gnu/gcc-arm-none-eabi-7-2017-q4-major-win32/bin/../lib/gcc/arm-none-eabi/7.2.1/../../../../arm-none-eabi/lib/thumb/v7e-m/fpv4-sp/hard\libg_nano.a(lib_a-findfp.o)
                              d:/gnu/gcc-arm-none-eabi-7-2017-q4-major-win32/bin/../lib/gcc/arm-none-eabi/7.2.1/../../../../arm-none-eabi/lib/thumb/v7e-m/fpv4-sp/hard\libg_nano.a(lib_a-printf.o) (__sinit)
d:/gnu/gcc-arm-none-eabi-7-2017-q4-major-win32/bin/../lib/gcc/arm-none-eabi/7.2.1/../../../../arm-none-eabi/lib/thumb/v7e-m/fpv4-sp/hard\libg_nano.a(lib_a-fwalk.o)
                              d:/gnu/gcc-arm-none-eabi-7-2017-q4-major-win32/bin/../lib/gcc/arm-none-eabi/7.2.1/../../../../arm-none-eabi/lib/thumb/v7e-m/fpv4-sp/hard\libg_nano.a(lib_a-findfp.o) (_fwalk)
d:/gnu/gcc-arm-none-eabi-7-2017-q4-major-win32/bin/../lib/gcc/arm-none-eabi/7.2.1/../../../../arm-none-eabi/lib/thumb/v7e-m/fpv4-sp/hard\libg_nano.a(lib_a-getenv_r.o)
                              d:/gnu/gcc-arm-none-eabi-7-2017-q4-major-win32/bin/../lib/gcc/arm-none-eabi/7.2.1/../../../../arm-none-eabi/lib/thumb/v7e-m/fpv4-sp/hard\libg_nano.a(lib_a-tzset_r.o) (_getenv_r)
d:/gnu/gcc-arm-none-eabi-7-2017-q4-major-win32/bin/../lib/gcc/arm-none-eabi/7.2.1/../../../../arm-none-eabi/lib/thumb/v7e-m/fpv4-sp/hard\libg_nano.a(lib_a-gettzinfo.o)
                              d:/gnu/gcc-arm-none-eabi-7-2017-q4-major-win32/bin/../lib/gcc/arm-none-eabi/7.2.1/../../../../arm-none-eabi/lib/thumb/v7e-m/fpv4-sp/hard\libg_nano.a(lib_a-lcltime_r.o) (__gettzinfo)
d:/gnu/gcc-arm-none-eabi-7-2017-q4-major-win32/bin/../lib/gcc/arm-none-eabi/7.2.1/../../../../arm-none-eabi/lib/thumb/v7e-m/fpv4-sp/hard\libg_nano.a(lib_a-gmtime_r.o)
                              d:/gnu/gcc-arm-none-eabi-7-2017-q4-major-win32/bin/../lib/gcc/arm-none-eabi/7.2.1/../../../../arm-none-eabi/lib/thumb/v7e-m/fpv4-sp/hard\libg_nano.a(lib_a-lcltime_r.o) (gmtime_r)
d:/gnu/gcc-arm-none-eabi-7-2017-q4-major-win32/bin/../lib/gcc/arm-none-eabi/7.2.1/../../../../arm-none-eabi/lib/thumb/v7e-m/fpv4-sp/hard\libg_nano.a(lib_a-locale.o)
                              d:/gnu/gcc-arm-none-eabi-7-2017-q4-major-win32/bin/../lib/gcc/arm-none-eabi/7.2.1/../../../../arm-none-eabi/lib/thumb/v7e-m/fpv4-sp/hard\libg_nano.a(lib_a-strtol.o) (__locale_ctype_ptr_l)
d:/gnu/gcc-arm-none-eabi-7-2017-q4-major-win32/bin/../lib/gcc/arm-none-eabi/7.2.1/../../../../arm-none-eabi/lib/thumb/v7e-m/fpv4-sp/hard\libg_nano.a(lib_a-malloc.o)
                              d:/gnu/gcc-arm-none-eabi-7-2017-q4-major-win32/bin/../lib/gcc/arm-none-eabi/7.2.1/../../../../arm-none-eabi/lib/thumb/v7e-m/fpv4-sp/hard\libg_nano.a(lib_a-rand.o) (malloc)
d:/gnu/gcc-arm-none-eabi-7-2017-q4-major-win32/bin/../lib/gcc/arm-none-eabi/7.2.1/../../../../arm-none-eabi/lib/thumb/v7e-m/fpv4-sp/hard\libg_nano.a(lib_a-mbtowc_r.o)
                              d:/gnu/gcc-arm-none-eabi-7-2017-q4-major-win32/bin/../lib/gcc/arm-none-eabi/7.2.1/../../../../arm-none-eabi/lib/thumb/v7e-m/fpv4-sp/hard\libg_nano.a(lib_a-locale.o) (__ascii_mbtowc)
d:/gnu/gcc-arm-none-eabi-7-2017-q4-major-win32/bin/../lib/gcc/arm-none-eabi/7.2.1/../../../../arm-none-eabi/lib/thumb/v7e-m/fpv4-sp/hard\libg_nano.a(lib_a-mlock.o)
                              d:/gnu/gcc-arm-none-eabi-7-2017-q4-major-win32/bin/../lib/gcc/arm-none-eabi/7.2.1/../../../../arm-none-eabi/lib/thumb/v7e-m/fpv4-sp/hard\libg_nano.a(lib_a-nano-mallocr.o) (__malloc_lock)
d:/gnu/gcc-arm-none-eabi-7-2017-q4-major-win32/bin/../lib/gcc/arm-none-eabi/7.2.1/../../../../arm-none-eabi/lib/thumb/v7e-m/fpv4-sp/hard\libg_nano.a(lib_a-nano-freer.o)
                              d:/gnu/gcc-arm-none-eabi-7-2017-q4-major-win32/bin/../lib/gcc/arm-none-eabi/7.2.1/../../../../arm-none-eabi/lib/thumb/v7e-m/fpv4-sp/hard\libg_nano.a(lib_a-malloc.o) (_free_r)
d:/gnu/gcc-arm-none-eabi-7-2017-q4-major-win32/bin/../lib/gcc/arm-none-eabi/7.2.1/../../../../arm-none-eabi/lib/thumb/v7e-m/fpv4-sp/hard\libg_nano.a(lib_a-nano-reallocr.o)
                              d:/gnu/gcc-arm-none-eabi-7-2017-q4-major-win32/bin/../lib/gcc/arm-none-eabi/7.2.1/../../../../arm-none-eabi/lib/thumb/v7e-m/fpv4-sp/hard\libg_nano.a(lib_a-realloc.o) (_realloc_r)
d:/gnu/gcc-arm-none-eabi-7-2017-q4-major-win32/bin/../lib/gcc/arm-none-eabi/7.2.1/../../../../arm-none-eabi/lib/thumb/v7e-m/fpv4-sp/hard\libg_nano.a(lib_a-nano-svfprintf.o)
                              d:/gnu/gcc-arm-none-eabi-7-2017-q4-major-win32/bin/../lib/gcc/arm-none-eabi/7.2.1/../../../../arm-none-eabi/lib/thumb/v7e-m/fpv4-sp/hard\libg_nano.a(lib_a-sprintf.o) (_svfprintf_r)
d:/gnu/gcc-arm-none-eabi-7-2017-q4-major-win32/bin/../lib/gcc/arm-none-eabi/7.2.1/../../../../arm-none-eabi/lib/thumb/v7e-m/fpv4-sp/hard\libg_nano.a(lib_a-nano-vfprintf.o)
                              d:/gnu/gcc-arm-none-eabi-7-2017-q4-major-win32/bin/../lib/gcc/arm-none-eabi/7.2.1/../../../../arm-none-eabi/lib/thumb/v7e-m/fpv4-sp/hard\libg_nano.a(lib_a-printf.o) (_vfprintf_r)
d:/gnu/gcc-arm-none-eabi-7-2017-q4-major-win32/bin/../lib/gcc/arm-none-eabi/7.2.1/../../../../arm-none-eabi/lib/thumb/v7e-m/fpv4-sp/hard\libg_nano.a(lib_a-nano-vfprintf_i.o)
                              d:/gnu/gcc-arm-none-eabi-7-2017-q4-major-win32/bin/../lib/gcc/arm-none-eabi/7.2.1/../../../../arm-none-eabi/lib/thumb/v7e-m/fpv4-sp/hard\libg_nano.a(lib_a-nano-svfprintf.o) (_printf_i)
d:/gnu/gcc-arm-none-eabi-7-2017-q4-major-win32/bin/../lib/gcc/arm-none-eabi/7.2.1/../../../../arm-none-eabi/lib/thumb/v7e-m/fpv4-sp/hard\libg_nano.a(lib_a-sscanf.o)
                              d:/gnu/gcc-arm-none-eabi-7-2017-q4-major-win32/bin/../lib/gcc/arm-none-eabi/7.2.1/../../../../arm-none-eabi/lib/thumb/v7e-m/fpv4-sp/hard\libg_nano.a(lib_a-tzset_r.o) (siscanf)
d:/gnu/gcc-arm-none-eabi-7-2017-q4-major-win32/bin/../lib/gcc/arm-none-eabi/7.2.1/../../../../arm-none-eabi/lib/thumb/v7e-m/fpv4-sp/hard\libg_nano.a(lib_a-stdio.o)
                              d:/gnu/gcc-arm-none-eabi-7-2017-q4-major-win32/bin/../lib/gcc/arm-none-eabi/7.2.1/../../../../arm-none-eabi/lib/thumb/v7e-m/fpv4-sp/hard\libg_nano.a(lib_a-findfp.o) (__sread)
d:/gnu/gcc-arm-none-eabi-7-2017-q4-major-win32/bin/../lib/gcc/arm-none-eabi/7.2.1/../../../../arm-none-eabi/lib/thumb/v7e-m/fpv4-sp/hard\libg_nano.a(lib_a-strcmp.o)
                              d:/gnu/gcc-arm-none-eabi-7-2017-q4-major-win32/bin/../lib/gcc/arm-none-eabi/7.2.1/../../../../arm-none-eabi/lib/thumb/v7e-m/fpv4-sp/hard\libg_nano.a(lib_a-tzset_r.o) (strcmp)
d:/gnu/gcc-arm-none-eabi-7-2017-q4-major-win32/bin/../lib/gcc/arm-none-eabi/7.2.1/../../../../arm-none-eabi/lib/thumb/v7e-m/fpv4-sp/hard\libg_nano.a(lib_a-strtoul.o)
                              d:/gnu/gcc-arm-none-eabi-7-2017-q4-major-win32/bin/../lib/gcc/arm-none-eabi/7.2.1/../../../../arm-none-eabi/lib/thumb/v7e-m/fpv4-sp/hard\libg_nano.a(lib_a-tzset_r.o) (strtoul)
d:/gnu/gcc-arm-none-eabi-7-2017-q4-major-win32/bin/../lib/gcc/arm-none-eabi/7.2.1/../../../../arm-none-eabi/lib/thumb/v7e-m/fpv4-sp/hard\libg_nano.a(lib_a-wbuf.o)
                              d:/gnu/gcc-arm-none-eabi-7-2017-q4-major-win32/bin/../lib/gcc/arm-none-eabi/7.2.1/../../../../arm-none-eabi/lib/thumb/v7e-m/fpv4-sp/hard\libg_nano.a(lib_a-nano-vfprintf.o) (__swbuf_r)
d:/gnu/gcc-arm-none-eabi-7-2017-q4-major-win32/bin/../lib/gcc/arm-none-eabi/7.2.1/../../../../arm-none-eabi/lib/thumb/v7e-m/fpv4-sp/hard\libg_nano.a(lib_a-wctomb_r.o)
                              d:/gnu/gcc-arm-none-eabi-7-2017-q4-major-win32/bin/../lib/gcc/arm-none-eabi/7.2.1/../../../../arm-none-eabi/lib/thumb/v7e-m/fpv4-sp/hard\libg_nano.a(lib_a-locale.o) (__ascii_wctomb)
d:/gnu/gcc-arm-none-eabi-7-2017-q4-major-win32/bin/../lib/gcc/arm-none-eabi/7.2.1/../../../../arm-none-eabi/lib/thumb/v7e-m/fpv4-sp/hard\libg_nano.a(lib_a-writer.o)
                              d:/gnu/gcc-arm-none-eabi-7-2017-q4-major-win32/bin/../lib/gcc/arm-none-eabi/7.2.1/../../../../arm-none-eabi/lib/thumb/v7e-m/fpv4-sp/hard\libg_nano.a(lib_a-stdio.o) (_write_r)
d:/gnu/gcc-arm-none-eabi-7-2017-q4-major-win32/bin/../lib/gcc/arm-none-eabi/7.2.1/../../../../arm-none-eabi/lib/thumb/v7e-m/fpv4-sp/hard\libg_nano.a(lib_a-wsetup.o)
                              d:/gnu/gcc-arm-none-eabi-7-2017-q4-major-win32/bin/../lib/gcc/arm-none-eabi/7.2.1/../../../../arm-none-eabi/lib/thumb/v7e-m/fpv4-sp/hard\libg_nano.a(lib_a-nano-vfprintf.o) (__swsetup_r)
d:/gnu/gcc-arm-none-eabi-7-2017-q4-major-win32/bin/../lib/gcc/arm-none-eabi/7.2.1/../../../../arm-none-eabi/lib/thumb/v7e-m/fpv4-sp/hard\libg_nano.a(lib_a-closer.o)
                              d:/gnu/gcc-arm-none-eabi-7-2017-q4-major-win32/bin/../lib/gcc/arm-none-eabi/7.2.1/../../../../arm-none-eabi/lib/thumb/v7e-m/fpv4-sp/hard\libg_nano.a(lib_a-stdio.o) (_close_r)
d:/gnu/gcc-arm-none-eabi-7-2017-q4-major-win32/bin/../lib/gcc/arm-none-eabi/7.2.1/../../../../arm-none-eabi/lib/thumb/v7e-m/fpv4-sp/hard\libg_nano.a(lib_a-ctype_.o)
                              d:/gnu/gcc-arm-none-eabi-7-2017-q4-major-win32/bin/../lib/gcc/arm-none-eabi/7.2.1/../../../../arm-none-eabi/lib/thumb/v7e-m/fpv4-sp/hard\libg_nano.a(lib_a-locale.o) (_ctype_)
d:/gnu/gcc-arm-none-eabi-7-2017-q4-major-win32/bin/../lib/gcc/arm-none-eabi/7.2.1/../../../../arm-none-eabi/lib/thumb/v7e-m/fpv4-sp/hard\libg_nano.a(lib_a-environ.o)
                              d:/gnu/gcc-arm-none-eabi-7-2017-q4-major-win32/bin/../lib/gcc/arm-none-eabi/7.2.1/../../../../arm-none-eabi/lib/thumb/v7e-m/fpv4-sp/hard\libg_nano.a(lib_a-getenv_r.o) (environ)
d:/gnu/gcc-arm-none-eabi-7-2017-q4-major-win32/bin/../lib/gcc/arm-none-eabi/7.2.1/../../../../arm-none-eabi/lib/thumb/v7e-m/fpv4-sp/hard\libg_nano.a(lib_a-envlock.o)
                              d:/gnu/gcc-arm-none-eabi-7-2017-q4-major-win32/bin/../lib/gcc/arm-none-eabi/7.2.1/../../../../arm-none-eabi/lib/thumb/v7e-m/fpv4-sp/hard\libg_nano.a(lib_a-getenv_r.o) (__env_lock)
d:/gnu/gcc-arm-none-eabi-7-2017-q4-major-win32/bin/../lib/gcc/arm-none-eabi/7.2.1/../../../../arm-none-eabi/lib/thumb/v7e-m/fpv4-sp/hard\libg_nano.a(lib_a-fflush.o)
                              d:/gnu/gcc-arm-none-eabi-7-2017-q4-major-win32/bin/../lib/gcc/arm-none-eabi/7.2.1/../../../../arm-none-eabi/lib/thumb/v7e-m/fpv4-sp/hard\libg_nano.a(lib_a-findfp.o) (_fflush_r)
d:/gnu/gcc-arm-none-eabi-7-2017-q4-major-win32/bin/../lib/gcc/arm-none-eabi/7.2.1/../../../../arm-none-eabi/lib/thumb/v7e-m/fpv4-sp/hard\libg_nano.a(lib_a-fvwrite.o)
                              d:/gnu/gcc-arm-none-eabi-7-2017-q4-major-win32/bin/../lib/gcc/arm-none-eabi/7.2.1/../../../../arm-none-eabi/lib/thumb/v7e-m/fpv4-sp/hard\libg_nano.a(lib_a-nano-vfprintf.o) (__sfvwrite_r)
d:/gnu/gcc-arm-none-eabi-7-2017-q4-major-win32/bin/../lib/gcc/arm-none-eabi/7.2.1/../../../../arm-none-eabi/lib/thumb/v7e-m/fpv4-sp/hard\libg_nano.a(lib_a-lseekr.o)
                              d:/gnu/gcc-arm-none-eabi-7-2017-q4-major-win32/bin/../lib/gcc/arm-none-eabi/7.2.1/../../../../arm-none-eabi/lib/thumb/v7e-m/fpv4-sp/hard\libg_nano.a(lib_a-stdio.o) (_lseek_r)
d:/gnu/gcc-arm-none-eabi-7-2017-q4-major-win32/bin/../lib/gcc/arm-none-eabi/7.2.1/../../../../arm-none-eabi/lib/thumb/v7e-m/fpv4-sp/hard\libg_nano.a(lib_a-makebuf.o)
                              d:/gnu/gcc-arm-none-eabi-7-2017-q4-major-win32/bin/../lib/gcc/arm-none-eabi/7.2.1/../../../../arm-none-eabi/lib/thumb/v7e-m/fpv4-sp/hard\libg_nano.a(lib_a-wsetup.o) (__smakebuf_r)
d:/gnu/gcc-arm-none-eabi-7-2017-q4-major-win32/bin/../lib/gcc/arm-none-eabi/7.2.1/../../../../arm-none-eabi/lib/thumb/v7e-m/fpv4-sp/hard\libg_nano.a(lib_a-memchr.o)
                              d:/gnu/gcc-arm-none-eabi-7-2017-q4-major-win32/bin/../lib/gcc/arm-none-eabi/7.2.1/../../../../arm-none-eabi/lib/thumb/v7e-m/fpv4-sp/hard\libg_nano.a(lib_a-nano-svfprintf.o) (memchr)
d:/gnu/gcc-arm-none-eabi-7-2017-q4-major-win32/bin/../lib/gcc/arm-none-eabi/7.2.1/../../../../arm-none-eabi/lib/thumb/v7e-m/fpv4-sp/hard\libg_nano.a(lib_a-memmove.o)
                              d:/gnu/gcc-arm-none-eabi-7-2017-q4-major-win32/bin/../lib/gcc/arm-none-eabi/7.2.1/../../../../arm-none-eabi/lib/thumb/v7e-m/fpv4-sp/hard\libg_nano.a(lib_a-nano-svfprintf.o) (memmove)
d:/gnu/gcc-arm-none-eabi-7-2017-q4-major-win32/bin/../lib/gcc/arm-none-eabi/7.2.1/../../../../arm-none-eabi/lib/thumb/v7e-m/fpv4-sp/hard\libg_nano.a(lib_a-nano-msizer.o)
                              d:/gnu/gcc-arm-none-eabi-7-2017-q4-major-win32/bin/../lib/gcc/arm-none-eabi/7.2.1/../../../../arm-none-eabi/lib/thumb/v7e-m/fpv4-sp/hard\libg_nano.a(lib_a-nano-reallocr.o) (_malloc_usable_size_r)
d:/gnu/gcc-arm-none-eabi-7-2017-q4-major-win32/bin/../lib/gcc/arm-none-eabi/7.2.1/../../../../arm-none-eabi/lib/thumb/v7e-m/fpv4-sp/hard\libg_nano.a(lib_a-nano-svfscanf.o)
                              d:/gnu/gcc-arm-none-eabi-7-2017-q4-major-win32/bin/../lib/gcc/arm-none-eabi/7.2.1/../../../../arm-none-eabi/lib/thumb/v7e-m/fpv4-sp/hard\libg_nano.a(lib_a-sscanf.o) (__ssvfscanf_r)
d:/gnu/gcc-arm-none-eabi-7-2017-q4-major-win32/bin/../lib/gcc/arm-none-eabi/7.2.1/../../../../arm-none-eabi/lib/thumb/v7e-m/fpv4-sp/hard\libg_nano.a(lib_a-nano-vfscanf_i.o)
                              d:/gnu/gcc-arm-none-eabi-7-2017-q4-major-win32/bin/../lib/gcc/arm-none-eabi/7.2.1/../../../../arm-none-eabi/lib/thumb/v7e-m/fpv4-sp/hard\libg_nano.a(lib_a-nano-svfscanf.o) (_scanf_chars)
d:/gnu/gcc-arm-none-eabi-7-2017-q4-major-win32/bin/../lib/gcc/arm-none-eabi/7.2.1/../../../../arm-none-eabi/lib/thumb/v7e-m/fpv4-sp/hard\libg_nano.a(lib_a-readr.o)
                              d:/gnu/gcc-arm-none-eabi-7-2017-q4-major-win32/bin/../lib/gcc/arm-none-eabi/7.2.1/../../../../arm-none-eabi/lib/thumb/v7e-m/fpv4-sp/hard\libg_nano.a(lib_a-stdio.o) (_read_r)
d:/gnu/gcc-arm-none-eabi-7-2017-q4-major-win32/bin/../lib/gcc/arm-none-eabi/7.2.1/../../../../arm-none-eabi/lib/thumb/v7e-m/fpv4-sp/hard\libg_nano.a(lib_a-sccl.o)
                              d:/gnu/gcc-arm-none-eabi-7-2017-q4-major-win32/bin/../lib/gcc/arm-none-eabi/7.2.1/../../../../arm-none-eabi/lib/thumb/v7e-m/fpv4-sp/hard\libg_nano.a(lib_a-nano-svfscanf.o) (__sccl)
d:/gnu/gcc-arm-none-eabi-7-2017-q4-major-win32/bin/../lib/gcc/arm-none-eabi/7.2.1/../../../../arm-none-eabi/lib/thumb/v7e-m/fpv4-sp/hard\libg_nano.a(lib_a-ungetc.o)
                              d:/gnu/gcc-arm-none-eabi-7-2017-q4-major-win32/bin/../lib/gcc/arm-none-eabi/7.2.1/../../../../arm-none-eabi/lib/thumb/v7e-m/fpv4-sp/hard\libg_nano.a(lib_a-nano-svfscanf.o) (__submore)
d:/gnu/gcc-arm-none-eabi-7-2017-q4-major-win32/bin/../lib/gcc/arm-none-eabi/7.2.1/../../../../arm-none-eabi/lib/thumb/v7e-m/fpv4-sp/hard\libg_nano.a(lib_a-fstatr.o)
                              d:/gnu/gcc-arm-none-eabi-7-2017-q4-major-win32/bin/../lib/gcc/arm-none-eabi/7.2.1/../../../../arm-none-eabi/lib/thumb/v7e-m/fpv4-sp/hard\libg_nano.a(lib_a-makebuf.o) (_fstat_r)
d:/gnu/gcc-arm-none-eabi-7-2017-q4-major-win32/bin/../lib/gcc/arm-none-eabi/7.2.1/../../../../arm-none-eabi/lib/thumb/v7e-m/fpv4-sp/hard\libg_nano.a(lib_a-isattyr.o)
                              d:/gnu/gcc-arm-none-eabi-7-2017-q4-major-win32/bin/../lib/gcc/arm-none-eabi/7.2.1/../../../../arm-none-eabi/lib/thumb/v7e-m/fpv4-sp/hard\libg_nano.a(lib_a-makebuf.o) (_isatty_r)
d:/gnu/gcc-arm-none-eabi-7-2017-q4-major-win32/bin/../lib/gcc/arm-none-eabi/7.2.1/thumb/v7e-m/fpv4-sp/hard\libgcc.a(_aeabi_ldivmod.o)
                              d:/gnu/gcc-arm-none-eabi-7-2017-q4-major-win32/bin/../lib/gcc/arm-none-eabi/7.2.1/../../../../arm-none-eabi/lib/thumb/v7e-m/fpv4-sp/hard\libg_nano.a(lib_a-gmtime_r.o) (__aeabi_ldivmod)
d:/gnu/gcc-arm-none-eabi-7-2017-q4-major-win32/bin/../lib/gcc/arm-none-eabi/7.2.1/thumb/v7e-m/fpv4-sp/hard\libgcc.a(_udivmoddi4.o)
                              d:/gnu/gcc-arm-none-eabi-7-2017-q4-major-win32/bin/../lib/gcc/arm-none-eabi/7.2.1/thumb/v7e-m/fpv4-sp/hard\libgcc.a(_aeabi_ldivmod.o) (__udivmoddi4)
d:/gnu/gcc-arm-none-eabi-7-2017-q4-major-win32/bin/../lib/gcc/arm-none-eabi/7.2.1/thumb/v7e-m/fpv4-sp/hard\libgcc.a(_dvmd_tls.o)
                              d:/gnu/gcc-arm-none-eabi-7-2017-q4-major-win32/bin/../lib/gcc/arm-none-eabi/7.2.1/thumb/v7e-m/fpv4-sp/hard\libgcc.a(_aeabi_ldivmod.o) (__aeabi_ldiv0)
d:/gnu/gcc-arm-none-eabi-7-2017-q4-major-win32/bin/../lib/gcc/arm-none-eabi/7.2.1/thumb/v7e-m/fpv4-sp/hard\libgcc.a(_aeabi_uldivmod.o)
                              C:\Users\alien\AppData\Local\Temp\ccodVkrc.ltrans0.ltrans.o (__aeabi_uldivmod)

Allocating common symbols
Common symbol       size              file

memp_memory_NETDB_base
                    0x137             ./Middlewares/Third_Party/LwIP/src/core/memp.o (symbol from plugin)
user_env_address    0x4               ./Src/env.o (symbol from plugin)
ucMDiscInBuf        0x20              ./FreeModbus/port/user_mb_app_m.o (symbol from plugin)
pxMBFrameCBTransmitterEmpty
                    0x4               ./FreeModbus/modbus/mb.o (symbol from plugin)
netif_list          0x4               ./Middlewares/Third_Party/LwIP/src/core/netif.o (symbol from plugin)
args                0x4               ./Src/tftp_server_iap.o (symbol from plugin)
defaultTaskHandle   0x4               ./Src/freertos.o (symbol from plugin)
ip_data             0x18              ./Middlewares/Third_Party/LwIP/src/core/ip.o (symbol from plugin)
pxMBPortCBTimerExpired
                    0x4               ./FreeModbus/modbus/mb.o (symbol from plugin)
memp_memory_NETBUF_base
                    0x403             ./Middlewares/Third_Party/LwIP/src/core/memp.o (symbol from plugin)
GATEWAY_ADDRESS     0x4               ./Src/lwip.o (symbol from plugin)
tcp_active_pcbs_changed
                    0x1               ./Middlewares/Third_Party/LwIP/src/core/tcp.o (symbol from plugin)
errno               0x4               C:\Users\alien\AppData\Local\Temp\ccodVkrc.ltrans3.ltrans.o
taskIOScanHandle    0x4               ./Src/freertos.o (symbol from plugin)
RS485Network        0x10              ./Src/rs485_network.o (symbol from plugin)
staticFrames        0xa78             ./lib60870-C/src/iec60870/t104/t104_frame.o (symbol from plugin)
taskConfigHandle    0x4               ./Src/freertos.o (symbol from plugin)
sTime               0x14              ./Src/rtc.o (symbol from plugin)
memp_memory_TCPIP_MSG_INPKT_base
                    0x83              ./Middlewares/Third_Party/LwIP/src/core/memp.o (symbol from plugin)
taskIEC104Handle    0x4               ./Src/iec104_handler.o (symbol from plugin)
hiwdg               0xc               ./Src/iwdg.o (symbol from plugin)
hcrc                0x8               ./Src/crc.o (symbol from plugin)
memp_memory_TCP_SEG_base
                    0x103             ./Middlewares/Third_Party/LwIP/src/core/memp.o (symbol from plugin)
ucSCoilBuf          0x8               ./FreeModbus/port/user_mb_app.o (symbol from plugin)
sys_env_address     0x4               ./Src/env.o (symbol from plugin)
ipaddr              0x4               ./Src/lwip.o (symbol from plugin)
xQueueRegistry      0x40              ./Middlewares/Third_Party/FreeRTOS/Source/queue.o (symbol from plugin)
memp_memory_PBUF_POOL_base
                    0x4c03            ./Middlewares/Third_Party/LwIP/src/core/memp.o (symbol from plugin)
ucRTUBuf            0x100             ./FreeModbus/modbus/rtu/mbrtu.o (symbol from plugin)
NETMASK_ADDRESS     0x4               ./Src/lwip.o (symbol from plugin)
memp_memory_FRAG_PBUF_base
                    0x16b             ./Middlewares/Third_Party/LwIP/src/core/memp.o (symbol from plugin)
memp_memory_TCPIP_MSG_API_base
                    0x83              ./Middlewares/Third_Party/LwIP/src/core/memp.o (symbol from plugin)
pxMBMasterFrameCBReceiveFSMCur
                    0x4               ./FreeModbus/modbus/mb_m.o (symbol from plugin)
ucMCoilBuf          0x80              ./FreeModbus/port/user_mb_app_m.o (symbol from plugin)
hspi3               0x58              ./Src/spi.o (symbol from plugin)
h_errno             0x4               ./Middlewares/Third_Party/LwIP/src/api/netdb.o (symbol from plugin)
IP_ADDRESS          0x4               ./Src/lwip.o (symbol from plugin)
huart5              0x40              ./Src/usart.o (symbol from plugin)
hdma_usart6_tx      0x60              ./Src/usart.o (symbol from plugin)
netmask             0x4               ./Src/lwip.o (symbol from plugin)
pxMBMasterFrameCBTransmitFSMCur
                    0x4               ./FreeModbus/modbus/mb_m.o (symbol from plugin)
usMRegHoldBuf       0xc80             ./FreeModbus/port/user_mb_app_m.o (symbol from plugin)
DMATxDscrTab        0x80              ./Src/ethernetif.o (symbol from plugin)
htim13              0x3c              ./Src/tim.o (symbol from plugin)
Rx_Buff             0x17d0            ./Src/ethernetif.o (symbol from plugin)
memp_memory_PBUF_base
                    0x103             ./Middlewares/Third_Party/LwIP/src/core/memp.o (symbol from plugin)
pxMBFrameCBTransmitFSMCur
                    0x4               ./FreeModbus/modbus/mb.o (symbol from plugin)
sDate               0x4               ./Src/rtc.o (symbol from plugin)
memp_memory_TCP_PCB_LISTEN_base
                    0xe3              ./Middlewares/Third_Party/LwIP/src/core/memp.o (symbol from plugin)
UID                 0xc               ./Src/main.o (symbol from plugin)
ucSDiscInBuf        0x2               ./FreeModbus/port/user_mb_app.o (symbol from plugin)
memp_memory_REASSDATA_base
                    0xa3              ./Middlewares/Third_Party/LwIP/src/core/memp.o (symbol from plugin)
htim6               0x3c              ./Src/tim.o (symbol from plugin)
htim1               0x3c              ./Src/stm32f4xx_hal_timebase_TIM.o (symbol from plugin)
usSRegHoldBuf       0xc8              ./FreeModbus/port/user_mb_app.o (symbol from plugin)
usSRegInBuf         0xc8              ./FreeModbus/port/user_mb_app.o (symbol from plugin)
memp_memory_UDP_PCB_base
                    0x83              ./Middlewares/Third_Party/LwIP/src/core/memp.o (symbol from plugin)
pbuf_free_ooseq_pending
                    0x1               ./Middlewares/Third_Party/LwIP/src/core/pbuf.o (symbol from plugin)
DMARxDscrTab        0x80              ./Src/ethernetif.o (symbol from plugin)
pxMBFrameCBReceiveFSMCur
                    0x4               ./FreeModbus/modbus/mb.o (symbol from plugin)
netconn_aborted     0x1               ./Middlewares/Third_Party/LwIP/src/api/api_msg.o (symbol from plugin)
gw                  0x4               ./Src/lwip.o (symbol from plugin)
pxMBMasterFrameCBTransmitterEmpty
                    0x4               ./FreeModbus/modbus/mb_m.o (symbol from plugin)
memp_memory_NETCONN_base
                    0x273             ./Middlewares/Third_Party/LwIP/src/core/memp.o (symbol from plugin)
netif_default       0x4               ./Middlewares/Third_Party/LwIP/src/core/netif.o (symbol from plugin)
htim14              0x3c              ./Src/tim.o (symbol from plugin)
memp_memory_TCP_PCB_base
                    0x4c3             ./Middlewares/Third_Party/LwIP/src/core/memp.o (symbol from plugin)
memp_memory_SYS_TIMEOUT_base
                    0x43              ./Middlewares/Third_Party/LwIP/src/core/memp.o (symbol from plugin)
htim7               0x3c              ./Src/tim.o (symbol from plugin)
ram_heap            0x2813            ./Middlewares/Third_Party/LwIP/src/core/mem.o (symbol from plugin)
usMRegInBuf         0xc80             ./FreeModbus/port/user_mb_app_m.o (symbol from plugin)
pxMBMasterPortCBTimerExpired
                    0x4               ./FreeModbus/modbus/mb_m.o (symbol from plugin)
Tx_Buff             0x17d0            ./Src/ethernetif.o (symbol from plugin)

Discarded input sections

 .text          0x00000000        0x0 d:/gnu/gcc-arm-none-eabi-7-2017-q4-major-win32/bin/../lib/gcc/arm-none-eabi/7.2.1/thumb/v7e-m/fpv4-sp/hard/crti.o
 .data          0x00000000        0x0 d:/gnu/gcc-arm-none-eabi-7-2017-q4-major-win32/bin/../lib/gcc/arm-none-eabi/7.2.1/thumb/v7e-m/fpv4-sp/hard/crti.o
 .bss           0x00000000        0x0 d:/gnu/gcc-arm-none-eabi-7-2017-q4-major-win32/bin/../lib/gcc/arm-none-eabi/7.2.1/thumb/v7e-m/fpv4-sp/hard/crti.o
 .data          0x00000000        0x4 d:/gnu/gcc-arm-none-eabi-7-2017-q4-major-win32/bin/../lib/gcc/arm-none-eabi/7.2.1/thumb/v7e-m/fpv4-sp/hard/crtbegin.o
 .text          0x00000000       0x74 d:/gnu/gcc-arm-none-eabi-7-2017-q4-major-win32/bin/../lib/gcc/arm-none-eabi/7.2.1/../../../../arm-none-eabi/lib/thumb/v7e-m/fpv4-sp/hard/crt0.o
 .data          0x00000000        0x0 d:/gnu/gcc-arm-none-eabi-7-2017-q4-major-win32/bin/../lib/gcc/arm-none-eabi/7.2.1/../../../../arm-none-eabi/lib/thumb/v7e-m/fpv4-sp/hard/crt0.o
 .bss           0x00000000        0x0 d:/gnu/gcc-arm-none-eabi-7-2017-q4-major-win32/bin/../lib/gcc/arm-none-eabi/7.2.1/../../../../arm-none-eabi/lib/thumb/v7e-m/fpv4-sp/hard/crt0.o
 .ARM.extab     0x00000000        0x0 d:/gnu/gcc-arm-none-eabi-7-2017-q4-major-win32/bin/../lib/gcc/arm-none-eabi/7.2.1/../../../../arm-none-eabi/lib/thumb/v7e-m/fpv4-sp/hard/crt0.o
 .ARM.exidx     0x00000000        0x8 d:/gnu/gcc-arm-none-eabi-7-2017-q4-major-win32/bin/../lib/gcc/arm-none-eabi/7.2.1/../../../../arm-none-eabi/lib/thumb/v7e-m/fpv4-sp/hard/crt0.o
 .ARM.attributes
                0x00000000       0x20 d:/gnu/gcc-arm-none-eabi-7-2017-q4-major-win32/bin/../lib/gcc/arm-none-eabi/7.2.1/../../../../arm-none-eabi/lib/thumb/v7e-m/fpv4-sp/hard/crt0.o
 .text          0x00000000        0x0 C:\Users\alien\AppData\Local\Temp\ccodVkrc.ltrans0.ltrans.o
 .data          0x00000000        0x0 C:\Users\alien\AppData\Local\Temp\ccodVkrc.ltrans0.ltrans.o
 .bss           0x00000000        0x0 C:\Users\alien\AppData\Local\Temp\ccodVkrc.ltrans0.ltrans.o
 .text.sys_mbox_valid
                0x00000000        0xa C:\Users\alien\AppData\Local\Temp\ccodVkrc.ltrans0.ltrans.o
 .text._exit    0x00000000        0xc C:\Users\alien\AppData\Local\Temp\ccodVkrc.ltrans0.ltrans.o
 .text          0x00000000        0x0 C:\Users\alien\AppData\Local\Temp\ccodVkrc.ltrans1.ltrans.o
 .data          0x00000000        0x0 C:\Users\alien\AppData\Local\Temp\ccodVkrc.ltrans1.ltrans.o
 .bss           0x00000000        0x0 C:\Users\alien\AppData\Local\Temp\ccodVkrc.ltrans1.ltrans.o
 .text          0x00000000        0x0 C:\Users\alien\AppData\Local\Temp\ccodVkrc.ltrans2.ltrans.o
 .data          0x00000000        0x0 C:\Users\alien\AppData\Local\Temp\ccodVkrc.ltrans2.ltrans.o
 .bss           0x00000000        0x0 C:\Users\alien\AppData\Local\Temp\ccodVkrc.ltrans2.ltrans.o
 .text.xMBMasterRTUTransmitFSM
                0x00000000       0xec C:\Users\alien\AppData\Local\Temp\ccodVkrc.ltrans2.ltrans.o
 .text.xMBMasterRTUTimerExpired
                0x00000000       0xbc C:\Users\alien\AppData\Local\Temp\ccodVkrc.ltrans2.ltrans.o
 .text.xMBRTUTimerT35Expired
                0x00000000       0x68 C:\Users\alien\AppData\Local\Temp\ccodVkrc.ltrans2.ltrans.o
 .text.xMBRTUTransmitFSM
                0x00000000       0xb4 C:\Users\alien\AppData\Local\Temp\ccodVkrc.ltrans2.ltrans.o
 .text.eMBMasterRTUStop
                0x00000000       0x1a C:\Users\alien\AppData\Local\Temp\ccodVkrc.ltrans2.ltrans.o
 .text.eMBRTUStop
                0x00000000       0x30 C:\Users\alien\AppData\Local\Temp\ccodVkrc.ltrans2.ltrans.o
 .text          0x00000000        0x0 C:\Users\alien\AppData\Local\Temp\ccodVkrc.ltrans3.ltrans.o
 .data          0x00000000        0x0 C:\Users\alien\AppData\Local\Temp\ccodVkrc.ltrans3.ltrans.o
 .bss           0x00000000        0x0 C:\Users\alien\AppData\Local\Temp\ccodVkrc.ltrans3.ltrans.o
 .text          0x00000000       0x14 ./startup_stm32f407xx.o
 .data          0x00000000        0x0 ./startup_stm32f407xx.o
 .bss           0x00000000        0x0 ./startup_stm32f407xx.o
 .text          0x00000000        0x0 d:/gnu/gcc-arm-none-eabi-7-2017-q4-major-win32/bin/../lib/gcc/arm-none-eabi/7.2.1/../../../../arm-none-eabi/lib/thumb/v7e-m/fpv4-sp/hard\libg_nano.a(lib_a-atoi.o)
 .data          0x00000000        0x0 d:/gnu/gcc-arm-none-eabi-7-2017-q4-major-win32/bin/../lib/gcc/arm-none-eabi/7.2.1/../../../../arm-none-eabi/lib/thumb/v7e-m/fpv4-sp/hard\libg_nano.a(lib_a-atoi.o)
 .bss           0x00000000        0x0 d:/gnu/gcc-arm-none-eabi-7-2017-q4-major-win32/bin/../lib/gcc/arm-none-eabi/7.2.1/../../../../arm-none-eabi/lib/thumb/v7e-m/fpv4-sp/hard\libg_nano.a(lib_a-atoi.o)
 .text.atoi     0x00000000        0x8 d:/gnu/gcc-arm-none-eabi-7-2017-q4-major-win32/bin/../lib/gcc/arm-none-eabi/7.2.1/../../../../arm-none-eabi/lib/thumb/v7e-m/fpv4-sp/hard\libg_nano.a(lib_a-atoi.o)
 .text._atoi_r  0x00000000        0x8 d:/gnu/gcc-arm-none-eabi-7-2017-q4-major-win32/bin/../lib/gcc/arm-none-eabi/7.2.1/../../../../arm-none-eabi/lib/thumb/v7e-m/fpv4-sp/hard\libg_nano.a(lib_a-atoi.o)
 .debug_frame   0x00000000       0x30 d:/gnu/gcc-arm-none-eabi-7-2017-q4-major-win32/bin/../lib/gcc/arm-none-eabi/7.2.1/../../../../arm-none-eabi/lib/thumb/v7e-m/fpv4-sp/hard\libg_nano.a(lib_a-atoi.o)
 .ARM.attributes
                0x00000000       0x34 d:/gnu/gcc-arm-none-eabi-7-2017-q4-major-win32/bin/../lib/gcc/arm-none-eabi/7.2.1/../../../../arm-none-eabi/lib/thumb/v7e-m/fpv4-sp/hard\libg_nano.a(lib_a-atoi.o)
 .text          0x00000000        0x0 d:/gnu/gcc-arm-none-eabi-7-2017-q4-major-win32/bin/../lib/gcc/arm-none-eabi/7.2.1/../../../../arm-none-eabi/lib/thumb/v7e-m/fpv4-sp/hard\libg_nano.a(lib_a-calloc.o)
 .data          0x00000000        0x0 d:/gnu/gcc-arm-none-eabi-7-2017-q4-major-win32/bin/../lib/gcc/arm-none-eabi/7.2.1/../../../../arm-none-eabi/lib/thumb/v7e-m/fpv4-sp/hard\libg_nano.a(lib_a-calloc.o)
 .bss           0x00000000        0x0 d:/gnu/gcc-arm-none-eabi-7-2017-q4-major-win32/bin/../lib/gcc/arm-none-eabi/7.2.1/../../../../arm-none-eabi/lib/thumb/v7e-m/fpv4-sp/hard\libg_nano.a(lib_a-calloc.o)
 .text          0x00000000        0x0 d:/gnu/gcc-arm-none-eabi-7-2017-q4-major-win32/bin/../lib/gcc/arm-none-eabi/7.2.1/../../../../arm-none-eabi/lib/thumb/v7e-m/fpv4-sp/hard\libg_nano.a(lib_a-exit.o)
 .data          0x00000000        0x0 d:/gnu/gcc-arm-none-eabi-7-2017-q4-major-win32/bin/../lib/gcc/arm-none-eabi/7.2.1/../../../../arm-none-eabi/lib/thumb/v7e-m/fpv4-sp/hard\libg_nano.a(lib_a-exit.o)
 .bss           0x00000000        0x0 d:/gnu/gcc-arm-none-eabi-7-2017-q4-major-win32/bin/../lib/gcc/arm-none-eabi/7.2.1/../../../../arm-none-eabi/lib/thumb/v7e-m/fpv4-sp/hard\libg_nano.a(lib_a-exit.o)
 .text.exit     0x00000000       0x28 d:/gnu/gcc-arm-none-eabi-7-2017-q4-major-win32/bin/../lib/gcc/arm-none-eabi/7.2.1/../../../../arm-none-eabi/lib/thumb/v7e-m/fpv4-sp/hard\libg_nano.a(lib_a-exit.o)
 .debug_frame   0x00000000       0x28 d:/gnu/gcc-arm-none-eabi-7-2017-q4-major-win32/bin/../lib/gcc/arm-none-eabi/7.2.1/../../../../arm-none-eabi/lib/thumb/v7e-m/fpv4-sp/hard\libg_nano.a(lib_a-exit.o)
 .ARM.attributes
                0x00000000       0x34 d:/gnu/gcc-arm-none-eabi-7-2017-q4-major-win32/bin/../lib/gcc/arm-none-eabi/7.2.1/../../../../arm-none-eabi/lib/thumb/v7e-m/fpv4-sp/hard\libg_nano.a(lib_a-exit.o)
 .text          0x00000000        0x0 d:/gnu/gcc-arm-none-eabi-7-2017-q4-major-win32/bin/../lib/gcc/arm-none-eabi/7.2.1/../../../../arm-none-eabi/lib/thumb/v7e-m/fpv4-sp/hard\libg_nano.a(lib_a-impure.o)
 .data          0x00000000        0x0 d:/gnu/gcc-arm-none-eabi-7-2017-q4-major-win32/bin/../lib/gcc/arm-none-eabi/7.2.1/../../../../arm-none-eabi/lib/thumb/v7e-m/fpv4-sp/hard\libg_nano.a(lib_a-impure.o)
 .bss           0x00000000        0x0 d:/gnu/gcc-arm-none-eabi-7-2017-q4-major-win32/bin/../lib/gcc/arm-none-eabi/7.2.1/../../../../arm-none-eabi/lib/thumb/v7e-m/fpv4-sp/hard\libg_nano.a(lib_a-impure.o)
 .text          0x00000000        0x0 d:/gnu/gcc-arm-none-eabi-7-2017-q4-major-win32/bin/../lib/gcc/arm-none-eabi/7.2.1/../../../../arm-none-eabi/lib/thumb/v7e-m/fpv4-sp/hard\libg_nano.a(lib_a-init.o)
 .data          0x00000000        0x0 d:/gnu/gcc-arm-none-eabi-7-2017-q4-major-win32/bin/../lib/gcc/arm-none-eabi/7.2.1/../../../../arm-none-eabi/lib/thumb/v7e-m/fpv4-sp/hard\libg_nano.a(lib_a-init.o)
 .bss           0x00000000        0x0 d:/gnu/gcc-arm-none-eabi-7-2017-q4-major-win32/bin/../lib/gcc/arm-none-eabi/7.2.1/../../../../arm-none-eabi/lib/thumb/v7e-m/fpv4-sp/hard\libg_nano.a(lib_a-init.o)
 .text          0x00000000        0x0 d:/gnu/gcc-arm-none-eabi-7-2017-q4-major-win32/bin/../lib/gcc/arm-none-eabi/7.2.1/../../../../arm-none-eabi/lib/thumb/v7e-m/fpv4-sp/hard\libg_nano.a(lib_a-lcltime_r.o)
 .data          0x00000000        0x0 d:/gnu/gcc-arm-none-eabi-7-2017-q4-major-win32/bin/../lib/gcc/arm-none-eabi/7.2.1/../../../../arm-none-eabi/lib/thumb/v7e-m/fpv4-sp/hard\libg_nano.a(lib_a-lcltime_r.o)
 .bss           0x00000000        0x0 d:/gnu/gcc-arm-none-eabi-7-2017-q4-major-win32/bin/../lib/gcc/arm-none-eabi/7.2.1/../../../../arm-none-eabi/lib/thumb/v7e-m/fpv4-sp/hard\libg_nano.a(lib_a-lcltime_r.o)
 .text          0x00000000        0x0 d:/gnu/gcc-arm-none-eabi-7-2017-q4-major-win32/bin/../lib/gcc/arm-none-eabi/7.2.1/../../../../arm-none-eabi/lib/thumb/v7e-m/fpv4-sp/hard\libg_nano.a(lib_a-memcmp.o)
 .data          0x00000000        0x0 d:/gnu/gcc-arm-none-eabi-7-2017-q4-major-win32/bin/../lib/gcc/arm-none-eabi/7.2.1/../../../../arm-none-eabi/lib/thumb/v7e-m/fpv4-sp/hard\libg_nano.a(lib_a-memcmp.o)
 .bss           0x00000000        0x0 d:/gnu/gcc-arm-none-eabi-7-2017-q4-major-win32/bin/../lib/gcc/arm-none-eabi/7.2.1/../../../../arm-none-eabi/lib/thumb/v7e-m/fpv4-sp/hard\libg_nano.a(lib_a-memcmp.o)
 .text          0x00000000        0x0 d:/gnu/gcc-arm-none-eabi-7-2017-q4-major-win32/bin/../lib/gcc/arm-none-eabi/7.2.1/../../../../arm-none-eabi/lib/thumb/v7e-m/fpv4-sp/hard\libg_nano.a(lib_a-memcpy-stub.o)
 .data          0x00000000        0x0 d:/gnu/gcc-arm-none-eabi-7-2017-q4-major-win32/bin/../lib/gcc/arm-none-eabi/7.2.1/../../../../arm-none-eabi/lib/thumb/v7e-m/fpv4-sp/hard\libg_nano.a(lib_a-memcpy-stub.o)
 .bss           0x00000000        0x0 d:/gnu/gcc-arm-none-eabi-7-2017-q4-major-win32/bin/../lib/gcc/arm-none-eabi/7.2.1/../../../../arm-none-eabi/lib/thumb/v7e-m/fpv4-sp/hard\libg_nano.a(lib_a-memcpy-stub.o)
 .text          0x00000000        0x0 d:/gnu/gcc-arm-none-eabi-7-2017-q4-major-win32/bin/../lib/gcc/arm-none-eabi/7.2.1/../../../../arm-none-eabi/lib/thumb/v7e-m/fpv4-sp/hard\libg_nano.a(lib_a-memset.o)
 .data          0x00000000        0x0 d:/gnu/gcc-arm-none-eabi-7-2017-q4-major-win32/bin/../lib/gcc/arm-none-eabi/7.2.1/../../../../arm-none-eabi/lib/thumb/v7e-m/fpv4-sp/hard\libg_nano.a(lib_a-memset.o)
 .bss           0x00000000        0x0 d:/gnu/gcc-arm-none-eabi-7-2017-q4-major-win32/bin/../lib/gcc/arm-none-eabi/7.2.1/../../../../arm-none-eabi/lib/thumb/v7e-m/fpv4-sp/hard\libg_nano.a(lib_a-memset.o)
 .text          0x00000000        0x0 d:/gnu/gcc-arm-none-eabi-7-2017-q4-major-win32/bin/../lib/gcc/arm-none-eabi/7.2.1/../../../../arm-none-eabi/lib/thumb/v7e-m/fpv4-sp/hard\libg_nano.a(lib_a-month_lengths.o)
 .data          0x00000000        0x0 d:/gnu/gcc-arm-none-eabi-7-2017-q4-major-win32/bin/../lib/gcc/arm-none-eabi/7.2.1/../../../../arm-none-eabi/lib/thumb/v7e-m/fpv4-sp/hard\libg_nano.a(lib_a-month_lengths.o)
 .bss           0x00000000        0x0 d:/gnu/gcc-arm-none-eabi-7-2017-q4-major-win32/bin/../lib/gcc/arm-none-eabi/7.2.1/../../../../arm-none-eabi/lib/thumb/v7e-m/fpv4-sp/hard\libg_nano.a(lib_a-month_lengths.o)
 .text          0x00000000        0x0 d:/gnu/gcc-arm-none-eabi-7-2017-q4-major-win32/bin/../lib/gcc/arm-none-eabi/7.2.1/../../../../arm-none-eabi/lib/thumb/v7e-m/fpv4-sp/hard\libg_nano.a(lib_a-nano-callocr.o)
 .data          0x00000000        0x0 d:/gnu/gcc-arm-none-eabi-7-2017-q4-major-win32/bin/../lib/gcc/arm-none-eabi/7.2.1/../../../../arm-none-eabi/lib/thumb/v7e-m/fpv4-sp/hard\libg_nano.a(lib_a-nano-callocr.o)
 .bss           0x00000000        0x0 d:/gnu/gcc-arm-none-eabi-7-2017-q4-major-win32/bin/../lib/gcc/arm-none-eabi/7.2.1/../../../../arm-none-eabi/lib/thumb/v7e-m/fpv4-sp/hard\libg_nano.a(lib_a-nano-callocr.o)
 .text          0x00000000        0x0 d:/gnu/gcc-arm-none-eabi-7-2017-q4-major-win32/bin/../lib/gcc/arm-none-eabi/7.2.1/../../../../arm-none-eabi/lib/thumb/v7e-m/fpv4-sp/hard\libg_nano.a(lib_a-nano-mallocr.o)
 .data          0x00000000        0x0 d:/gnu/gcc-arm-none-eabi-7-2017-q4-major-win32/bin/../lib/gcc/arm-none-eabi/7.2.1/../../../../arm-none-eabi/lib/thumb/v7e-m/fpv4-sp/hard\libg_nano.a(lib_a-nano-mallocr.o)
 .bss           0x00000000        0x0 d:/gnu/gcc-arm-none-eabi-7-2017-q4-major-win32/bin/../lib/gcc/arm-none-eabi/7.2.1/../../../../arm-none-eabi/lib/thumb/v7e-m/fpv4-sp/hard\libg_nano.a(lib_a-nano-mallocr.o)
 .text          0x00000000        0x0 d:/gnu/gcc-arm-none-eabi-7-2017-q4-major-win32/bin/../lib/gcc/arm-none-eabi/7.2.1/../../../../arm-none-eabi/lib/thumb/v7e-m/fpv4-sp/hard\libg_nano.a(lib_a-printf.o)
 .data          0x00000000        0x0 d:/gnu/gcc-arm-none-eabi-7-2017-q4-major-win32/bin/../lib/gcc/arm-none-eabi/7.2.1/../../../../arm-none-eabi/lib/thumb/v7e-m/fpv4-sp/hard\libg_nano.a(lib_a-printf.o)
 .bss           0x00000000        0x0 d:/gnu/gcc-arm-none-eabi-7-2017-q4-major-win32/bin/../lib/gcc/arm-none-eabi/7.2.1/../../../../arm-none-eabi/lib/thumb/v7e-m/fpv4-sp/hard\libg_nano.a(lib_a-printf.o)
 .text._printf_r
                0x00000000       0x28 d:/gnu/gcc-arm-none-eabi-7-2017-q4-major-win32/bin/../lib/gcc/arm-none-eabi/7.2.1/../../../../arm-none-eabi/lib/thumb/v7e-m/fpv4-sp/hard\libg_nano.a(lib_a-printf.o)
 .text          0x00000000        0x0 d:/gnu/gcc-arm-none-eabi-7-2017-q4-major-win32/bin/../lib/gcc/arm-none-eabi/7.2.1/../../../../arm-none-eabi/lib/thumb/v7e-m/fpv4-sp/hard\libg_nano.a(lib_a-rand.o)
 .data          0x00000000        0x0 d:/gnu/gcc-arm-none-eabi-7-2017-q4-major-win32/bin/../lib/gcc/arm-none-eabi/7.2.1/../../../../arm-none-eabi/lib/thumb/v7e-m/fpv4-sp/hard\libg_nano.a(lib_a-rand.o)
 .bss           0x00000000        0x0 d:/gnu/gcc-arm-none-eabi-7-2017-q4-major-win32/bin/../lib/gcc/arm-none-eabi/7.2.1/../../../../arm-none-eabi/lib/thumb/v7e-m/fpv4-sp/hard\libg_nano.a(lib_a-rand.o)
 .text.srand    0x00000000       0x48 d:/gnu/gcc-arm-none-eabi-7-2017-q4-major-win32/bin/../lib/gcc/arm-none-eabi/7.2.1/../../../../arm-none-eabi/lib/thumb/v7e-m/fpv4-sp/hard\libg_nano.a(lib_a-rand.o)
 .text          0x00000000        0x0 d:/gnu/gcc-arm-none-eabi-7-2017-q4-major-win32/bin/../lib/gcc/arm-none-eabi/7.2.1/../../../../arm-none-eabi/lib/thumb/v7e-m/fpv4-sp/hard\libg_nano.a(lib_a-realloc.o)
 .data          0x00000000        0x0 d:/gnu/gcc-arm-none-eabi-7-2017-q4-major-win32/bin/../lib/gcc/arm-none-eabi/7.2.1/../../../../arm-none-eabi/lib/thumb/v7e-m/fpv4-sp/hard\libg_nano.a(lib_a-realloc.o)
 .bss           0x00000000        0x0 d:/gnu/gcc-arm-none-eabi-7-2017-q4-major-win32/bin/../lib/gcc/arm-none-eabi/7.2.1/../../../../arm-none-eabi/lib/thumb/v7e-m/fpv4-sp/hard\libg_nano.a(lib_a-realloc.o)
 .text.realloc  0x00000000       0x10 d:/gnu/gcc-arm-none-eabi-7-2017-q4-major-win32/bin/../lib/gcc/arm-none-eabi/7.2.1/../../../../arm-none-eabi/lib/thumb/v7e-m/fpv4-sp/hard\libg_nano.a(lib_a-realloc.o)
 .debug_frame   0x00000000       0x20 d:/gnu/gcc-arm-none-eabi-7-2017-q4-major-win32/bin/../lib/gcc/arm-none-eabi/7.2.1/../../../../arm-none-eabi/lib/thumb/v7e-m/fpv4-sp/hard\libg_nano.a(lib_a-realloc.o)
 .ARM.attributes
                0x00000000       0x34 d:/gnu/gcc-arm-none-eabi-7-2017-q4-major-win32/bin/../lib/gcc/arm-none-eabi/7.2.1/../../../../arm-none-eabi/lib/thumb/v7e-m/fpv4-sp/hard\libg_nano.a(lib_a-realloc.o)
 .text          0x00000000        0x0 d:/gnu/gcc-arm-none-eabi-7-2017-q4-major-win32/bin/../lib/gcc/arm-none-eabi/7.2.1/../../../../arm-none-eabi/lib/thumb/v7e-m/fpv4-sp/hard\libg_nano.a(lib_a-sbrkr.o)
 .data          0x00000000        0x0 d:/gnu/gcc-arm-none-eabi-7-2017-q4-major-win32/bin/../lib/gcc/arm-none-eabi/7.2.1/../../../../arm-none-eabi/lib/thumb/v7e-m/fpv4-sp/hard\libg_nano.a(lib_a-sbrkr.o)
 .bss           0x00000000        0x0 d:/gnu/gcc-arm-none-eabi-7-2017-q4-major-win32/bin/../lib/gcc/arm-none-eabi/7.2.1/../../../../arm-none-eabi/lib/thumb/v7e-m/fpv4-sp/hard\libg_nano.a(lib_a-sbrkr.o)
 .text          0x00000000        0x0 d:/gnu/gcc-arm-none-eabi-7-2017-q4-major-win32/bin/../lib/gcc/arm-none-eabi/7.2.1/../../../../arm-none-eabi/lib/thumb/v7e-m/fpv4-sp/hard\libg_nano.a(lib_a-sprintf.o)
 .data          0x00000000        0x0 d:/gnu/gcc-arm-none-eabi-7-2017-q4-major-win32/bin/../lib/gcc/arm-none-eabi/7.2.1/../../../../arm-none-eabi/lib/thumb/v7e-m/fpv4-sp/hard\libg_nano.a(lib_a-sprintf.o)
 .bss           0x00000000        0x0 d:/gnu/gcc-arm-none-eabi-7-2017-q4-major-win32/bin/../lib/gcc/arm-none-eabi/7.2.1/../../../../arm-none-eabi/lib/thumb/v7e-m/fpv4-sp/hard\libg_nano.a(lib_a-sprintf.o)
 .text._sprintf_r
                0x00000000       0x38 d:/gnu/gcc-arm-none-eabi-7-2017-q4-major-win32/bin/../lib/gcc/arm-none-eabi/7.2.1/../../../../arm-none-eabi/lib/thumb/v7e-m/fpv4-sp/hard\libg_nano.a(lib_a-sprintf.o)
 .text.sprintf  0x00000000       0x40 d:/gnu/gcc-arm-none-eabi-7-2017-q4-major-win32/bin/../lib/gcc/arm-none-eabi/7.2.1/../../../../arm-none-eabi/lib/thumb/v7e-m/fpv4-sp/hard\libg_nano.a(lib_a-sprintf.o)
 .debug_frame   0x00000000       0x6c d:/gnu/gcc-arm-none-eabi-7-2017-q4-major-win32/bin/../lib/gcc/arm-none-eabi/7.2.1/../../../../arm-none-eabi/lib/thumb/v7e-m/fpv4-sp/hard\libg_nano.a(lib_a-sprintf.o)
 .ARM.attributes
                0x00000000       0x34 d:/gnu/gcc-arm-none-eabi-7-2017-q4-major-win32/bin/../lib/gcc/arm-none-eabi/7.2.1/../../../../arm-none-eabi/lib/thumb/v7e-m/fpv4-sp/hard\libg_nano.a(lib_a-sprintf.o)
 .text          0x00000000        0x0 d:/gnu/gcc-arm-none-eabi-7-2017-q4-major-win32/bin/../lib/gcc/arm-none-eabi/7.2.1/../../../../arm-none-eabi/lib/thumb/v7e-m/fpv4-sp/hard\libg_nano.a(lib_a-strcpy.o)
 .data          0x00000000        0x0 d:/gnu/gcc-arm-none-eabi-7-2017-q4-major-win32/bin/../lib/gcc/arm-none-eabi/7.2.1/../../../../arm-none-eabi/lib/thumb/v7e-m/fpv4-sp/hard\libg_nano.a(lib_a-strcpy.o)
 .bss           0x00000000        0x0 d:/gnu/gcc-arm-none-eabi-7-2017-q4-major-win32/bin/../lib/gcc/arm-none-eabi/7.2.1/../../../../arm-none-eabi/lib/thumb/v7e-m/fpv4-sp/hard\libg_nano.a(lib_a-strcpy.o)
 .data          0x00000000        0x0 d:/gnu/gcc-arm-none-eabi-7-2017-q4-major-win32/bin/../lib/gcc/arm-none-eabi/7.2.1/../../../../arm-none-eabi/lib/thumb/v7e-m/fpv4-sp/hard\libg_nano.a(lib_a-strlen.o)
 .bss           0x00000000        0x0 d:/gnu/gcc-arm-none-eabi-7-2017-q4-major-win32/bin/../lib/gcc/arm-none-eabi/7.2.1/../../../../arm-none-eabi/lib/thumb/v7e-m/fpv4-sp/hard\libg_nano.a(lib_a-strlen.o)
 .text          0x00000000        0x0 d:/gnu/gcc-arm-none-eabi-7-2017-q4-major-win32/bin/../lib/gcc/arm-none-eabi/7.2.1/../../../../arm-none-eabi/lib/thumb/v7e-m/fpv4-sp/hard\libg_nano.a(lib_a-strncmp.o)
 .data          0x00000000        0x0 d:/gnu/gcc-arm-none-eabi-7-2017-q4-major-win32/bin/../lib/gcc/arm-none-eabi/7.2.1/../../../../arm-none-eabi/lib/thumb/v7e-m/fpv4-sp/hard\libg_nano.a(lib_a-strncmp.o)
 .bss           0x00000000        0x0 d:/gnu/gcc-arm-none-eabi-7-2017-q4-major-win32/bin/../lib/gcc/arm-none-eabi/7.2.1/../../../../arm-none-eabi/lib/thumb/v7e-m/fpv4-sp/hard\libg_nano.a(lib_a-strncmp.o)
 .text          0x00000000        0x0 d:/gnu/gcc-arm-none-eabi-7-2017-q4-major-win32/bin/../lib/gcc/arm-none-eabi/7.2.1/../../../../arm-none-eabi/lib/thumb/v7e-m/fpv4-sp/hard\libg_nano.a(lib_a-strncpy.o)
 .data          0x00000000        0x0 d:/gnu/gcc-arm-none-eabi-7-2017-q4-major-win32/bin/../lib/gcc/arm-none-eabi/7.2.1/../../../../arm-none-eabi/lib/thumb/v7e-m/fpv4-sp/hard\libg_nano.a(lib_a-strncpy.o)
 .bss           0x00000000        0x0 d:/gnu/gcc-arm-none-eabi-7-2017-q4-major-win32/bin/../lib/gcc/arm-none-eabi/7.2.1/../../../../arm-none-eabi/lib/thumb/v7e-m/fpv4-sp/hard\libg_nano.a(lib_a-strncpy.o)
 .text          0x00000000        0x0 d:/gnu/gcc-arm-none-eabi-7-2017-q4-major-win32/bin/../lib/gcc/arm-none-eabi/7.2.1/../../../../arm-none-eabi/lib/thumb/v7e-m/fpv4-sp/hard\libg_nano.a(lib_a-strtol.o)
 .data          0x00000000        0x0 d:/gnu/gcc-arm-none-eabi-7-2017-q4-major-win32/bin/../lib/gcc/arm-none-eabi/7.2.1/../../../../arm-none-eabi/lib/thumb/v7e-m/fpv4-sp/hard\libg_nano.a(lib_a-strtol.o)
 .bss           0x00000000        0x0 d:/gnu/gcc-arm-none-eabi-7-2017-q4-major-win32/bin/../lib/gcc/arm-none-eabi/7.2.1/../../../../arm-none-eabi/lib/thumb/v7e-m/fpv4-sp/hard\libg_nano.a(lib_a-strtol.o)
 .text.strtol_l
                0x00000000       0x1c d:/gnu/gcc-arm-none-eabi-7-2017-q4-major-win32/bin/../lib/gcc/arm-none-eabi/7.2.1/../../../../arm-none-eabi/lib/thumb/v7e-m/fpv4-sp/hard\libg_nano.a(lib_a-strtol.o)
 .text.strtol   0x00000000       0x2c d:/gnu/gcc-arm-none-eabi-7-2017-q4-major-win32/bin/../lib/gcc/arm-none-eabi/7.2.1/../../../../arm-none-eabi/lib/thumb/v7e-m/fpv4-sp/hard\libg_nano.a(lib_a-strtol.o)
 .text          0x00000000        0x0 d:/gnu/gcc-arm-none-eabi-7-2017-q4-major-win32/bin/../lib/gcc/arm-none-eabi/7.2.1/../../../../arm-none-eabi/lib/thumb/v7e-m/fpv4-sp/hard\libg_nano.a(lib_a-tzcalc_limits.o)
 .data          0x00000000        0x0 d:/gnu/gcc-arm-none-eabi-7-2017-q4-major-win32/bin/../lib/gcc/arm-none-eabi/7.2.1/../../../../arm-none-eabi/lib/thumb/v7e-m/fpv4-sp/hard\libg_nano.a(lib_a-tzcalc_limits.o)
 .bss           0x00000000        0x0 d:/gnu/gcc-arm-none-eabi-7-2017-q4-major-win32/bin/../lib/gcc/arm-none-eabi/7.2.1/../../../../arm-none-eabi/lib/thumb/v7e-m/fpv4-sp/hard\libg_nano.a(lib_a-tzcalc_limits.o)
 .text          0x00000000        0x0 d:/gnu/gcc-arm-none-eabi-7-2017-q4-major-win32/bin/../lib/gcc/arm-none-eabi/7.2.1/../../../../arm-none-eabi/lib/thumb/v7e-m/fpv4-sp/hard\libg_nano.a(lib_a-tzlock.o)
 .data          0x00000000        0x0 d:/gnu/gcc-arm-none-eabi-7-2017-q4-major-win32/bin/../lib/gcc/arm-none-eabi/7.2.1/../../../../arm-none-eabi/lib/thumb/v7e-m/fpv4-sp/hard\libg_nano.a(lib_a-tzlock.o)
 .bss           0x00000000        0x0 d:/gnu/gcc-arm-none-eabi-7-2017-q4-major-win32/bin/../lib/gcc/arm-none-eabi/7.2.1/../../../../arm-none-eabi/lib/thumb/v7e-m/fpv4-sp/hard\libg_nano.a(lib_a-tzlock.o)
 .text          0x00000000        0x0 d:/gnu/gcc-arm-none-eabi-7-2017-q4-major-win32/bin/../lib/gcc/arm-none-eabi/7.2.1/../../../../arm-none-eabi/lib/thumb/v7e-m/fpv4-sp/hard\libg_nano.a(lib_a-tzset.o)
 .data          0x00000000        0x0 d:/gnu/gcc-arm-none-eabi-7-2017-q4-major-win32/bin/../lib/gcc/arm-none-eabi/7.2.1/../../../../arm-none-eabi/lib/thumb/v7e-m/fpv4-sp/hard\libg_nano.a(lib_a-tzset.o)
 .bss           0x00000000        0x0 d:/gnu/gcc-arm-none-eabi-7-2017-q4-major-win32/bin/../lib/gcc/arm-none-eabi/7.2.1/../../../../arm-none-eabi/lib/thumb/v7e-m/fpv4-sp/hard\libg_nano.a(lib_a-tzset.o)
 .text.tzset    0x00000000       0x1c d:/gnu/gcc-arm-none-eabi-7-2017-q4-major-win32/bin/../lib/gcc/arm-none-eabi/7.2.1/../../../../arm-none-eabi/lib/thumb/v7e-m/fpv4-sp/hard\libg_nano.a(lib_a-tzset.o)
 .text          0x00000000        0x0 d:/gnu/gcc-arm-none-eabi-7-2017-q4-major-win32/bin/../lib/gcc/arm-none-eabi/7.2.1/../../../../arm-none-eabi/lib/thumb/v7e-m/fpv4-sp/hard\libg_nano.a(lib_a-tzset_r.o)
 .data          0x00000000        0x0 d:/gnu/gcc-arm-none-eabi-7-2017-q4-major-win32/bin/../lib/gcc/arm-none-eabi/7.2.1/../../../../arm-none-eabi/lib/thumb/v7e-m/fpv4-sp/hard\libg_nano.a(lib_a-tzset_r.o)
 .bss           0x00000000        0x0 d:/gnu/gcc-arm-none-eabi-7-2017-q4-major-win32/bin/../lib/gcc/arm-none-eabi/7.2.1/../../../../arm-none-eabi/lib/thumb/v7e-m/fpv4-sp/hard\libg_nano.a(lib_a-tzset_r.o)
 .text._tzset_r
                0x00000000       0x16 d:/gnu/gcc-arm-none-eabi-7-2017-q4-major-win32/bin/../lib/gcc/arm-none-eabi/7.2.1/../../../../arm-none-eabi/lib/thumb/v7e-m/fpv4-sp/hard\libg_nano.a(lib_a-tzset_r.o)
 .text          0x00000000        0x0 d:/gnu/gcc-arm-none-eabi-7-2017-q4-major-win32/bin/../lib/gcc/arm-none-eabi/7.2.1/../../../../arm-none-eabi/lib/thumb/v7e-m/fpv4-sp/hard\libg_nano.a(lib_a-tzvars.o)
 .data          0x00000000        0x0 d:/gnu/gcc-arm-none-eabi-7-2017-q4-major-win32/bin/../lib/gcc/arm-none-eabi/7.2.1/../../../../arm-none-eabi/lib/thumb/v7e-m/fpv4-sp/hard\libg_nano.a(lib_a-tzvars.o)
 .bss           0x00000000        0x0 d:/gnu/gcc-arm-none-eabi-7-2017-q4-major-win32/bin/../lib/gcc/arm-none-eabi/7.2.1/../../../../arm-none-eabi/lib/thumb/v7e-m/fpv4-sp/hard\libg_nano.a(lib_a-tzvars.o)
 .text          0x00000000        0x0 d:/gnu/gcc-arm-none-eabi-7-2017-q4-major-win32/bin/../lib/gcc/arm-none-eabi/7.2.1/../../../../arm-none-eabi/lib/thumb/v7e-m/fpv4-sp/hard\libg_nano.a(lib_a-findfp.o)
 .data          0x00000000        0x0 d:/gnu/gcc-arm-none-eabi-7-2017-q4-major-win32/bin/../lib/gcc/arm-none-eabi/7.2.1/../../../../arm-none-eabi/lib/thumb/v7e-m/fpv4-sp/hard\libg_nano.a(lib_a-findfp.o)
 .bss           0x00000000        0x0 d:/gnu/gcc-arm-none-eabi-7-2017-q4-major-win32/bin/../lib/gcc/arm-none-eabi/7.2.1/../../../../arm-none-eabi/lib/thumb/v7e-m/fpv4-sp/hard\libg_nano.a(lib_a-findfp.o)
 .text.__fp_lock
                0x00000000        0x4 d:/gnu/gcc-arm-none-eabi-7-2017-q4-major-win32/bin/../lib/gcc/arm-none-eabi/7.2.1/../../../../arm-none-eabi/lib/thumb/v7e-m/fpv4-sp/hard\libg_nano.a(lib_a-findfp.o)
 .text.__fp_unlock
                0x00000000        0x4 d:/gnu/gcc-arm-none-eabi-7-2017-q4-major-win32/bin/../lib/gcc/arm-none-eabi/7.2.1/../../../../arm-none-eabi/lib/thumb/v7e-m/fpv4-sp/hard\libg_nano.a(lib_a-findfp.o)
 .text._cleanup
                0x00000000        0xc d:/gnu/gcc-arm-none-eabi-7-2017-q4-major-win32/bin/../lib/gcc/arm-none-eabi/7.2.1/../../../../arm-none-eabi/lib/thumb/v7e-m/fpv4-sp/hard\libg_nano.a(lib_a-findfp.o)
 .text.__sfp_lock_acquire
                0x00000000        0x2 d:/gnu/gcc-arm-none-eabi-7-2017-q4-major-win32/bin/../lib/gcc/arm-none-eabi/7.2.1/../../../../arm-none-eabi/lib/thumb/v7e-m/fpv4-sp/hard\libg_nano.a(lib_a-findfp.o)
 .text.__sfp_lock_release
                0x00000000        0x2 d:/gnu/gcc-arm-none-eabi-7-2017-q4-major-win32/bin/../lib/gcc/arm-none-eabi/7.2.1/../../../../arm-none-eabi/lib/thumb/v7e-m/fpv4-sp/hard\libg_nano.a(lib_a-findfp.o)
 .text.__sinit_lock_acquire
                0x00000000        0x2 d:/gnu/gcc-arm-none-eabi-7-2017-q4-major-win32/bin/../lib/gcc/arm-none-eabi/7.2.1/../../../../arm-none-eabi/lib/thumb/v7e-m/fpv4-sp/hard\libg_nano.a(lib_a-findfp.o)
 .text.__sinit_lock_release
                0x00000000        0x2 d:/gnu/gcc-arm-none-eabi-7-2017-q4-major-win32/bin/../lib/gcc/arm-none-eabi/7.2.1/../../../../arm-none-eabi/lib/thumb/v7e-m/fpv4-sp/hard\libg_nano.a(lib_a-findfp.o)
 .text.__fp_lock_all
                0x00000000       0x14 d:/gnu/gcc-arm-none-eabi-7-2017-q4-major-win32/bin/../lib/gcc/arm-none-eabi/7.2.1/../../../../arm-none-eabi/lib/thumb/v7e-m/fpv4-sp/hard\libg_nano.a(lib_a-findfp.o)
 .text.__fp_unlock_all
                0x00000000       0x14 d:/gnu/gcc-arm-none-eabi-7-2017-q4-major-win32/bin/../lib/gcc/arm-none-eabi/7.2.1/../../../../arm-none-eabi/lib/thumb/v7e-m/fpv4-sp/hard\libg_nano.a(lib_a-findfp.o)
 .text          0x00000000        0x0 d:/gnu/gcc-arm-none-eabi-7-2017-q4-major-win32/bin/../lib/gcc/arm-none-eabi/7.2.1/../../../../arm-none-eabi/lib/thumb/v7e-m/fpv4-sp/hard\libg_nano.a(lib_a-fwalk.o)
 .data          0x00000000        0x0 d:/gnu/gcc-arm-none-eabi-7-2017-q4-major-win32/bin/../lib/gcc/arm-none-eabi/7.2.1/../../../../arm-none-eabi/lib/thumb/v7e-m/fpv4-sp/hard\libg_nano.a(lib_a-fwalk.o)
 .bss           0x00000000        0x0 d:/gnu/gcc-arm-none-eabi-7-2017-q4-major-win32/bin/../lib/gcc/arm-none-eabi/7.2.1/../../../../arm-none-eabi/lib/thumb/v7e-m/fpv4-sp/hard\libg_nano.a(lib_a-fwalk.o)
 .text._fwalk   0x00000000       0x38 d:/gnu/gcc-arm-none-eabi-7-2017-q4-major-win32/bin/../lib/gcc/arm-none-eabi/7.2.1/../../../../arm-none-eabi/lib/thumb/v7e-m/fpv4-sp/hard\libg_nano.a(lib_a-fwalk.o)
 .text          0x00000000        0x0 d:/gnu/gcc-arm-none-eabi-7-2017-q4-major-win32/bin/../lib/gcc/arm-none-eabi/7.2.1/../../../../arm-none-eabi/lib/thumb/v7e-m/fpv4-sp/hard\libg_nano.a(lib_a-getenv_r.o)
 .data          0x00000000        0x0 d:/gnu/gcc-arm-none-eabi-7-2017-q4-major-win32/bin/../lib/gcc/arm-none-eabi/7.2.1/../../../../arm-none-eabi/lib/thumb/v7e-m/fpv4-sp/hard\libg_nano.a(lib_a-getenv_r.o)
 .bss           0x00000000        0x0 d:/gnu/gcc-arm-none-eabi-7-2017-q4-major-win32/bin/../lib/gcc/arm-none-eabi/7.2.1/../../../../arm-none-eabi/lib/thumb/v7e-m/fpv4-sp/hard\libg_nano.a(lib_a-getenv_r.o)
 .text          0x00000000        0x0 d:/gnu/gcc-arm-none-eabi-7-2017-q4-major-win32/bin/../lib/gcc/arm-none-eabi/7.2.1/../../../../arm-none-eabi/lib/thumb/v7e-m/fpv4-sp/hard\libg_nano.a(lib_a-gettzinfo.o)
 .data          0x00000000        0x0 d:/gnu/gcc-arm-none-eabi-7-2017-q4-major-win32/bin/../lib/gcc/arm-none-eabi/7.2.1/../../../../arm-none-eabi/lib/thumb/v7e-m/fpv4-sp/hard\libg_nano.a(lib_a-gettzinfo.o)
 .bss           0x00000000        0x0 d:/gnu/gcc-arm-none-eabi-7-2017-q4-major-win32/bin/../lib/gcc/arm-none-eabi/7.2.1/../../../../arm-none-eabi/lib/thumb/v7e-m/fpv4-sp/hard\libg_nano.a(lib_a-gettzinfo.o)
 .text          0x00000000        0x0 d:/gnu/gcc-arm-none-eabi-7-2017-q4-major-win32/bin/../lib/gcc/arm-none-eabi/7.2.1/../../../../arm-none-eabi/lib/thumb/v7e-m/fpv4-sp/hard\libg_nano.a(lib_a-gmtime_r.o)
 .data          0x00000000        0x0 d:/gnu/gcc-arm-none-eabi-7-2017-q4-major-win32/bin/../lib/gcc/arm-none-eabi/7.2.1/../../../../arm-none-eabi/lib/thumb/v7e-m/fpv4-sp/hard\libg_nano.a(lib_a-gmtime_r.o)
 .bss           0x00000000        0x0 d:/gnu/gcc-arm-none-eabi-7-2017-q4-major-win32/bin/../lib/gcc/arm-none-eabi/7.2.1/../../../../arm-none-eabi/lib/thumb/v7e-m/fpv4-sp/hard\libg_nano.a(lib_a-gmtime_r.o)
 .text          0x00000000        0x0 d:/gnu/gcc-arm-none-eabi-7-2017-q4-major-win32/bin/../lib/gcc/arm-none-eabi/7.2.1/../../../../arm-none-eabi/lib/thumb/v7e-m/fpv4-sp/hard\libg_nano.a(lib_a-locale.o)
 .data          0x00000000        0x0 d:/gnu/gcc-arm-none-eabi-7-2017-q4-major-win32/bin/../lib/gcc/arm-none-eabi/7.2.1/../../../../arm-none-eabi/lib/thumb/v7e-m/fpv4-sp/hard\libg_nano.a(lib_a-locale.o)
 .bss           0x00000000        0x0 d:/gnu/gcc-arm-none-eabi-7-2017-q4-major-win32/bin/../lib/gcc/arm-none-eabi/7.2.1/../../../../arm-none-eabi/lib/thumb/v7e-m/fpv4-sp/hard\libg_nano.a(lib_a-locale.o)
 .text._setlocale_r
                0x00000000       0x38 d:/gnu/gcc-arm-none-eabi-7-2017-q4-major-win32/bin/../lib/gcc/arm-none-eabi/7.2.1/../../../../arm-none-eabi/lib/thumb/v7e-m/fpv4-sp/hard\libg_nano.a(lib_a-locale.o)
 .text.__locale_mb_cur_max
                0x00000000       0x1c d:/gnu/gcc-arm-none-eabi-7-2017-q4-major-win32/bin/../lib/gcc/arm-none-eabi/7.2.1/../../../../arm-none-eabi/lib/thumb/v7e-m/fpv4-sp/hard\libg_nano.a(lib_a-locale.o)
 .text.setlocale
                0x00000000       0x10 d:/gnu/gcc-arm-none-eabi-7-2017-q4-major-win32/bin/../lib/gcc/arm-none-eabi/7.2.1/../../../../arm-none-eabi/lib/thumb/v7e-m/fpv4-sp/hard\libg_nano.a(lib_a-locale.o)
 .bss._PathLocale
                0x00000000        0x4 d:/gnu/gcc-arm-none-eabi-7-2017-q4-major-win32/bin/../lib/gcc/arm-none-eabi/7.2.1/../../../../arm-none-eabi/lib/thumb/v7e-m/fpv4-sp/hard\libg_nano.a(lib_a-locale.o)
 .text          0x00000000        0x0 d:/gnu/gcc-arm-none-eabi-7-2017-q4-major-win32/bin/../lib/gcc/arm-none-eabi/7.2.1/../../../../arm-none-eabi/lib/thumb/v7e-m/fpv4-sp/hard\libg_nano.a(lib_a-malloc.o)
 .data          0x00000000        0x0 d:/gnu/gcc-arm-none-eabi-7-2017-q4-major-win32/bin/../lib/gcc/arm-none-eabi/7.2.1/../../../../arm-none-eabi/lib/thumb/v7e-m/fpv4-sp/hard\libg_nano.a(lib_a-malloc.o)
 .bss           0x00000000        0x0 d:/gnu/gcc-arm-none-eabi-7-2017-q4-major-win32/bin/../lib/gcc/arm-none-eabi/7.2.1/../../../../arm-none-eabi/lib/thumb/v7e-m/fpv4-sp/hard\libg_nano.a(lib_a-malloc.o)
 .text          0x00000000        0x0 d:/gnu/gcc-arm-none-eabi-7-2017-q4-major-win32/bin/../lib/gcc/arm-none-eabi/7.2.1/../../../../arm-none-eabi/lib/thumb/v7e-m/fpv4-sp/hard\libg_nano.a(lib_a-mbtowc_r.o)
 .data          0x00000000        0x0 d:/gnu/gcc-arm-none-eabi-7-2017-q4-major-win32/bin/../lib/gcc/arm-none-eabi/7.2.1/../../../../arm-none-eabi/lib/thumb/v7e-m/fpv4-sp/hard\libg_nano.a(lib_a-mbtowc_r.o)
 .bss           0x00000000        0x0 d:/gnu/gcc-arm-none-eabi-7-2017-q4-major-win32/bin/../lib/gcc/arm-none-eabi/7.2.1/../../../../arm-none-eabi/lib/thumb/v7e-m/fpv4-sp/hard\libg_nano.a(lib_a-mbtowc_r.o)
 .text._mbtowc_r
                0x00000000       0x24 d:/gnu/gcc-arm-none-eabi-7-2017-q4-major-win32/bin/../lib/gcc/arm-none-eabi/7.2.1/../../../../arm-none-eabi/lib/thumb/v7e-m/fpv4-sp/hard\libg_nano.a(lib_a-mbtowc_r.o)
 .text          0x00000000        0x0 d:/gnu/gcc-arm-none-eabi-7-2017-q4-major-win32/bin/../lib/gcc/arm-none-eabi/7.2.1/../../../../arm-none-eabi/lib/thumb/v7e-m/fpv4-sp/hard\libg_nano.a(lib_a-mlock.o)
 .data          0x00000000        0x0 d:/gnu/gcc-arm-none-eabi-7-2017-q4-major-win32/bin/../lib/gcc/arm-none-eabi/7.2.1/../../../../arm-none-eabi/lib/thumb/v7e-m/fpv4-sp/hard\libg_nano.a(lib_a-mlock.o)
 .bss           0x00000000        0x0 d:/gnu/gcc-arm-none-eabi-7-2017-q4-major-win32/bin/../lib/gcc/arm-none-eabi/7.2.1/../../../../arm-none-eabi/lib/thumb/v7e-m/fpv4-sp/hard\libg_nano.a(lib_a-mlock.o)
 .text          0x00000000        0x0 d:/gnu/gcc-arm-none-eabi-7-2017-q4-major-win32/bin/../lib/gcc/arm-none-eabi/7.2.1/../../../../arm-none-eabi/lib/thumb/v7e-m/fpv4-sp/hard\libg_nano.a(lib_a-nano-freer.o)
 .data          0x00000000        0x0 d:/gnu/gcc-arm-none-eabi-7-2017-q4-major-win32/bin/../lib/gcc/arm-none-eabi/7.2.1/../../../../arm-none-eabi/lib/thumb/v7e-m/fpv4-sp/hard\libg_nano.a(lib_a-nano-freer.o)
 .bss           0x00000000        0x0 d:/gnu/gcc-arm-none-eabi-7-2017-q4-major-win32/bin/../lib/gcc/arm-none-eabi/7.2.1/../../../../arm-none-eabi/lib/thumb/v7e-m/fpv4-sp/hard\libg_nano.a(lib_a-nano-freer.o)
 .text          0x00000000        0x0 d:/gnu/gcc-arm-none-eabi-7-2017-q4-major-win32/bin/../lib/gcc/arm-none-eabi/7.2.1/../../../../arm-none-eabi/lib/thumb/v7e-m/fpv4-sp/hard\libg_nano.a(lib_a-nano-reallocr.o)
 .data          0x00000000        0x0 d:/gnu/gcc-arm-none-eabi-7-2017-q4-major-win32/bin/../lib/gcc/arm-none-eabi/7.2.1/../../../../arm-none-eabi/lib/thumb/v7e-m/fpv4-sp/hard\libg_nano.a(lib_a-nano-reallocr.o)
 .bss           0x00000000        0x0 d:/gnu/gcc-arm-none-eabi-7-2017-q4-major-win32/bin/../lib/gcc/arm-none-eabi/7.2.1/../../../../arm-none-eabi/lib/thumb/v7e-m/fpv4-sp/hard\libg_nano.a(lib_a-nano-reallocr.o)
 .text          0x00000000        0x0 d:/gnu/gcc-arm-none-eabi-7-2017-q4-major-win32/bin/../lib/gcc/arm-none-eabi/7.2.1/../../../../arm-none-eabi/lib/thumb/v7e-m/fpv4-sp/hard\libg_nano.a(lib_a-nano-svfprintf.o)
 .data          0x00000000        0x0 d:/gnu/gcc-arm-none-eabi-7-2017-q4-major-win32/bin/../lib/gcc/arm-none-eabi/7.2.1/../../../../arm-none-eabi/lib/thumb/v7e-m/fpv4-sp/hard\libg_nano.a(lib_a-nano-svfprintf.o)
 .bss           0x00000000        0x0 d:/gnu/gcc-arm-none-eabi-7-2017-q4-major-win32/bin/../lib/gcc/arm-none-eabi/7.2.1/../../../../arm-none-eabi/lib/thumb/v7e-m/fpv4-sp/hard\libg_nano.a(lib_a-nano-svfprintf.o)
 .text.__ssputs_r
                0x00000000       0xb4 d:/gnu/gcc-arm-none-eabi-7-2017-q4-major-win32/bin/../lib/gcc/arm-none-eabi/7.2.1/../../../../arm-none-eabi/lib/thumb/v7e-m/fpv4-sp/hard\libg_nano.a(lib_a-nano-svfprintf.o)
 .text.__ssprint_r
                0x00000000       0xf0 d:/gnu/gcc-arm-none-eabi-7-2017-q4-major-win32/bin/../lib/gcc/arm-none-eabi/7.2.1/../../../../arm-none-eabi/lib/thumb/v7e-m/fpv4-sp/hard\libg_nano.a(lib_a-nano-svfprintf.o)
 .text._svfprintf_r
                0x00000000      0x1ec d:/gnu/gcc-arm-none-eabi-7-2017-q4-major-win32/bin/../lib/gcc/arm-none-eabi/7.2.1/../../../../arm-none-eabi/lib/thumb/v7e-m/fpv4-sp/hard\libg_nano.a(lib_a-nano-svfprintf.o)
 .rodata._svfprintf_r.str1.1
                0x00000000       0x11 d:/gnu/gcc-arm-none-eabi-7-2017-q4-major-win32/bin/../lib/gcc/arm-none-eabi/7.2.1/../../../../arm-none-eabi/lib/thumb/v7e-m/fpv4-sp/hard\libg_nano.a(lib_a-nano-svfprintf.o)
 .debug_frame   0x00000000       0x90 d:/gnu/gcc-arm-none-eabi-7-2017-q4-major-win32/bin/../lib/gcc/arm-none-eabi/7.2.1/../../../../arm-none-eabi/lib/thumb/v7e-m/fpv4-sp/hard\libg_nano.a(lib_a-nano-svfprintf.o)
 .ARM.attributes
                0x00000000       0x34 d:/gnu/gcc-arm-none-eabi-7-2017-q4-major-win32/bin/../lib/gcc/arm-none-eabi/7.2.1/../../../../arm-none-eabi/lib/thumb/v7e-m/fpv4-sp/hard\libg_nano.a(lib_a-nano-svfprintf.o)
 .text          0x00000000        0x0 d:/gnu/gcc-arm-none-eabi-7-2017-q4-major-win32/bin/../lib/gcc/arm-none-eabi/7.2.1/../../../../arm-none-eabi/lib/thumb/v7e-m/fpv4-sp/hard\libg_nano.a(lib_a-nano-vfprintf.o)
 .data          0x00000000        0x0 d:/gnu/gcc-arm-none-eabi-7-2017-q4-major-win32/bin/../lib/gcc/arm-none-eabi/7.2.1/../../../../arm-none-eabi/lib/thumb/v7e-m/fpv4-sp/hard\libg_nano.a(lib_a-nano-vfprintf.o)
 .bss           0x00000000        0x0 d:/gnu/gcc-arm-none-eabi-7-2017-q4-major-win32/bin/../lib/gcc/arm-none-eabi/7.2.1/../../../../arm-none-eabi/lib/thumb/v7e-m/fpv4-sp/hard\libg_nano.a(lib_a-nano-vfprintf.o)
 .text.__sprint_r
                0x00000000       0x1a d:/gnu/gcc-arm-none-eabi-7-2017-q4-major-win32/bin/../lib/gcc/arm-none-eabi/7.2.1/../../../../arm-none-eabi/lib/thumb/v7e-m/fpv4-sp/hard\libg_nano.a(lib_a-nano-vfprintf.o)
 .text.vfprintf
                0x00000000       0x14 d:/gnu/gcc-arm-none-eabi-7-2017-q4-major-win32/bin/../lib/gcc/arm-none-eabi/7.2.1/../../../../arm-none-eabi/lib/thumb/v7e-m/fpv4-sp/hard\libg_nano.a(lib_a-nano-vfprintf.o)
 .text          0x00000000        0x0 d:/gnu/gcc-arm-none-eabi-7-2017-q4-major-win32/bin/../lib/gcc/arm-none-eabi/7.2.1/../../../../arm-none-eabi/lib/thumb/v7e-m/fpv4-sp/hard\libg_nano.a(lib_a-nano-vfprintf_i.o)
 .data          0x00000000        0x0 d:/gnu/gcc-arm-none-eabi-7-2017-q4-major-win32/bin/../lib/gcc/arm-none-eabi/7.2.1/../../../../arm-none-eabi/lib/thumb/v7e-m/fpv4-sp/hard\libg_nano.a(lib_a-nano-vfprintf_i.o)
 .bss           0x00000000        0x0 d:/gnu/gcc-arm-none-eabi-7-2017-q4-major-win32/bin/../lib/gcc/arm-none-eabi/7.2.1/../../../../arm-none-eabi/lib/thumb/v7e-m/fpv4-sp/hard\libg_nano.a(lib_a-nano-vfprintf_i.o)
 .text          0x00000000        0x0 d:/gnu/gcc-arm-none-eabi-7-2017-q4-major-win32/bin/../lib/gcc/arm-none-eabi/7.2.1/../../../../arm-none-eabi/lib/thumb/v7e-m/fpv4-sp/hard\libg_nano.a(lib_a-sscanf.o)
 .data          0x00000000        0x0 d:/gnu/gcc-arm-none-eabi-7-2017-q4-major-win32/bin/../lib/gcc/arm-none-eabi/7.2.1/../../../../arm-none-eabi/lib/thumb/v7e-m/fpv4-sp/hard\libg_nano.a(lib_a-sscanf.o)
 .bss           0x00000000        0x0 d:/gnu/gcc-arm-none-eabi-7-2017-q4-major-win32/bin/../lib/gcc/arm-none-eabi/7.2.1/../../../../arm-none-eabi/lib/thumb/v7e-m/fpv4-sp/hard\libg_nano.a(lib_a-sscanf.o)
 .text._sscanf_r
                0x00000000       0x54 d:/gnu/gcc-arm-none-eabi-7-2017-q4-major-win32/bin/../lib/gcc/arm-none-eabi/7.2.1/../../../../arm-none-eabi/lib/thumb/v7e-m/fpv4-sp/hard\libg_nano.a(lib_a-sscanf.o)
 .text          0x00000000        0x0 d:/gnu/gcc-arm-none-eabi-7-2017-q4-major-win32/bin/../lib/gcc/arm-none-eabi/7.2.1/../../../../arm-none-eabi/lib/thumb/v7e-m/fpv4-sp/hard\libg_nano.a(lib_a-stdio.o)
 .data          0x00000000        0x0 d:/gnu/gcc-arm-none-eabi-7-2017-q4-major-win32/bin/../lib/gcc/arm-none-eabi/7.2.1/../../../../arm-none-eabi/lib/thumb/v7e-m/fpv4-sp/hard\libg_nano.a(lib_a-stdio.o)
 .bss           0x00000000        0x0 d:/gnu/gcc-arm-none-eabi-7-2017-q4-major-win32/bin/../lib/gcc/arm-none-eabi/7.2.1/../../../../arm-none-eabi/lib/thumb/v7e-m/fpv4-sp/hard\libg_nano.a(lib_a-stdio.o)
 .data          0x00000000        0x0 d:/gnu/gcc-arm-none-eabi-7-2017-q4-major-win32/bin/../lib/gcc/arm-none-eabi/7.2.1/../../../../arm-none-eabi/lib/thumb/v7e-m/fpv4-sp/hard\libg_nano.a(lib_a-strcmp.o)
 .bss           0x00000000        0x0 d:/gnu/gcc-arm-none-eabi-7-2017-q4-major-win32/bin/../lib/gcc/arm-none-eabi/7.2.1/../../../../arm-none-eabi/lib/thumb/v7e-m/fpv4-sp/hard\libg_nano.a(lib_a-strcmp.o)
 .text          0x00000000        0x0 d:/gnu/gcc-arm-none-eabi-7-2017-q4-major-win32/bin/../lib/gcc/arm-none-eabi/7.2.1/../../../../arm-none-eabi/lib/thumb/v7e-m/fpv4-sp/hard\libg_nano.a(lib_a-strtoul.o)
 .data          0x00000000        0x0 d:/gnu/gcc-arm-none-eabi-7-2017-q4-major-win32/bin/../lib/gcc/arm-none-eabi/7.2.1/../../../../arm-none-eabi/lib/thumb/v7e-m/fpv4-sp/hard\libg_nano.a(lib_a-strtoul.o)
 .bss           0x00000000        0x0 d:/gnu/gcc-arm-none-eabi-7-2017-q4-major-win32/bin/../lib/gcc/arm-none-eabi/7.2.1/../../../../arm-none-eabi/lib/thumb/v7e-m/fpv4-sp/hard\libg_nano.a(lib_a-strtoul.o)
 .text.strtoul_l
                0x00000000       0x1c d:/gnu/gcc-arm-none-eabi-7-2017-q4-major-win32/bin/../lib/gcc/arm-none-eabi/7.2.1/../../../../arm-none-eabi/lib/thumb/v7e-m/fpv4-sp/hard\libg_nano.a(lib_a-strtoul.o)
 .text          0x00000000        0x0 d:/gnu/gcc-arm-none-eabi-7-2017-q4-major-win32/bin/../lib/gcc/arm-none-eabi/7.2.1/../../../../arm-none-eabi/lib/thumb/v7e-m/fpv4-sp/hard\libg_nano.a(lib_a-wbuf.o)
 .data          0x00000000        0x0 d:/gnu/gcc-arm-none-eabi-7-2017-q4-major-win32/bin/../lib/gcc/arm-none-eabi/7.2.1/../../../../arm-none-eabi/lib/thumb/v7e-m/fpv4-sp/hard\libg_nano.a(lib_a-wbuf.o)
 .bss           0x00000000        0x0 d:/gnu/gcc-arm-none-eabi-7-2017-q4-major-win32/bin/../lib/gcc/arm-none-eabi/7.2.1/../../../../arm-none-eabi/lib/thumb/v7e-m/fpv4-sp/hard\libg_nano.a(lib_a-wbuf.o)
 .text.__swbuf  0x00000000       0x10 d:/gnu/gcc-arm-none-eabi-7-2017-q4-major-win32/bin/../lib/gcc/arm-none-eabi/7.2.1/../../../../arm-none-eabi/lib/thumb/v7e-m/fpv4-sp/hard\libg_nano.a(lib_a-wbuf.o)
 .text          0x00000000        0x0 d:/gnu/gcc-arm-none-eabi-7-2017-q4-major-win32/bin/../lib/gcc/arm-none-eabi/7.2.1/../../../../arm-none-eabi/lib/thumb/v7e-m/fpv4-sp/hard\libg_nano.a(lib_a-wctomb_r.o)
 .data          0x00000000        0x0 d:/gnu/gcc-arm-none-eabi-7-2017-q4-major-win32/bin/../lib/gcc/arm-none-eabi/7.2.1/../../../../arm-none-eabi/lib/thumb/v7e-m/fpv4-sp/hard\libg_nano.a(lib_a-wctomb_r.o)
 .bss           0x00000000        0x0 d:/gnu/gcc-arm-none-eabi-7-2017-q4-major-win32/bin/../lib/gcc/arm-none-eabi/7.2.1/../../../../arm-none-eabi/lib/thumb/v7e-m/fpv4-sp/hard\libg_nano.a(lib_a-wctomb_r.o)
 .text._wctomb_r
                0x00000000       0x24 d:/gnu/gcc-arm-none-eabi-7-2017-q4-major-win32/bin/../lib/gcc/arm-none-eabi/7.2.1/../../../../arm-none-eabi/lib/thumb/v7e-m/fpv4-sp/hard\libg_nano.a(lib_a-wctomb_r.o)
 .text          0x00000000        0x0 d:/gnu/gcc-arm-none-eabi-7-2017-q4-major-win32/bin/../lib/gcc/arm-none-eabi/7.2.1/../../../../arm-none-eabi/lib/thumb/v7e-m/fpv4-sp/hard\libg_nano.a(lib_a-writer.o)
 .data          0x00000000        0x0 d:/gnu/gcc-arm-none-eabi-7-2017-q4-major-win32/bin/../lib/gcc/arm-none-eabi/7.2.1/../../../../arm-none-eabi/lib/thumb/v7e-m/fpv4-sp/hard\libg_nano.a(lib_a-writer.o)
 .bss           0x00000000        0x0 d:/gnu/gcc-arm-none-eabi-7-2017-q4-major-win32/bin/../lib/gcc/arm-none-eabi/7.2.1/../../../../arm-none-eabi/lib/thumb/v7e-m/fpv4-sp/hard\libg_nano.a(lib_a-writer.o)
 .text          0x00000000        0x0 d:/gnu/gcc-arm-none-eabi-7-2017-q4-major-win32/bin/../lib/gcc/arm-none-eabi/7.2.1/../../../../arm-none-eabi/lib/thumb/v7e-m/fpv4-sp/hard\libg_nano.a(lib_a-wsetup.o)
 .data          0x00000000        0x0 d:/gnu/gcc-arm-none-eabi-7-2017-q4-major-win32/bin/../lib/gcc/arm-none-eabi/7.2.1/../../../../arm-none-eabi/lib/thumb/v7e-m/fpv4-sp/hard\libg_nano.a(lib_a-wsetup.o)
 .bss           0x00000000        0x0 d:/gnu/gcc-arm-none-eabi-7-2017-q4-major-win32/bin/../lib/gcc/arm-none-eabi/7.2.1/../../../../arm-none-eabi/lib/thumb/v7e-m/fpv4-sp/hard\libg_nano.a(lib_a-wsetup.o)
 .text          0x00000000        0x0 d:/gnu/gcc-arm-none-eabi-7-2017-q4-major-win32/bin/../lib/gcc/arm-none-eabi/7.2.1/../../../../arm-none-eabi/lib/thumb/v7e-m/fpv4-sp/hard\libg_nano.a(lib_a-closer.o)
 .data          0x00000000        0x0 d:/gnu/gcc-arm-none-eabi-7-2017-q4-major-win32/bin/../lib/gcc/arm-none-eabi/7.2.1/../../../../arm-none-eabi/lib/thumb/v7e-m/fpv4-sp/hard\libg_nano.a(lib_a-closer.o)
 .bss           0x00000000        0x0 d:/gnu/gcc-arm-none-eabi-7-2017-q4-major-win32/bin/../lib/gcc/arm-none-eabi/7.2.1/../../../../arm-none-eabi/lib/thumb/v7e-m/fpv4-sp/hard\libg_nano.a(lib_a-closer.o)
 .text          0x00000000        0x0 d:/gnu/gcc-arm-none-eabi-7-2017-q4-major-win32/bin/../lib/gcc/arm-none-eabi/7.2.1/../../../../arm-none-eabi/lib/thumb/v7e-m/fpv4-sp/hard\libg_nano.a(lib_a-ctype_.o)
 .data          0x00000000        0x0 d:/gnu/gcc-arm-none-eabi-7-2017-q4-major-win32/bin/../lib/gcc/arm-none-eabi/7.2.1/../../../../arm-none-eabi/lib/thumb/v7e-m/fpv4-sp/hard\libg_nano.a(lib_a-ctype_.o)
 .bss           0x00000000        0x0 d:/gnu/gcc-arm-none-eabi-7-2017-q4-major-win32/bin/../lib/gcc/arm-none-eabi/7.2.1/../../../../arm-none-eabi/lib/thumb/v7e-m/fpv4-sp/hard\libg_nano.a(lib_a-ctype_.o)
 .text          0x00000000        0x0 d:/gnu/gcc-arm-none-eabi-7-2017-q4-major-win32/bin/../lib/gcc/arm-none-eabi/7.2.1/../../../../arm-none-eabi/lib/thumb/v7e-m/fpv4-sp/hard\libg_nano.a(lib_a-environ.o)
 .data          0x00000000        0x0 d:/gnu/gcc-arm-none-eabi-7-2017-q4-major-win32/bin/../lib/gcc/arm-none-eabi/7.2.1/../../../../arm-none-eabi/lib/thumb/v7e-m/fpv4-sp/hard\libg_nano.a(lib_a-environ.o)
 .bss           0x00000000        0x0 d:/gnu/gcc-arm-none-eabi-7-2017-q4-major-win32/bin/../lib/gcc/arm-none-eabi/7.2.1/../../../../arm-none-eabi/lib/thumb/v7e-m/fpv4-sp/hard\libg_nano.a(lib_a-environ.o)
 .text          0x00000000        0x0 d:/gnu/gcc-arm-none-eabi-7-2017-q4-major-win32/bin/../lib/gcc/arm-none-eabi/7.2.1/../../../../arm-none-eabi/lib/thumb/v7e-m/fpv4-sp/hard\libg_nano.a(lib_a-envlock.o)
 .data          0x00000000        0x0 d:/gnu/gcc-arm-none-eabi-7-2017-q4-major-win32/bin/../lib/gcc/arm-none-eabi/7.2.1/../../../../arm-none-eabi/lib/thumb/v7e-m/fpv4-sp/hard\libg_nano.a(lib_a-envlock.o)
 .bss           0x00000000        0x0 d:/gnu/gcc-arm-none-eabi-7-2017-q4-major-win32/bin/../lib/gcc/arm-none-eabi/7.2.1/../../../../arm-none-eabi/lib/thumb/v7e-m/fpv4-sp/hard\libg_nano.a(lib_a-envlock.o)
 .text          0x00000000        0x0 d:/gnu/gcc-arm-none-eabi-7-2017-q4-major-win32/bin/../lib/gcc/arm-none-eabi/7.2.1/../../../../arm-none-eabi/lib/thumb/v7e-m/fpv4-sp/hard\libg_nano.a(lib_a-fflush.o)
 .data          0x00000000        0x0 d:/gnu/gcc-arm-none-eabi-7-2017-q4-major-win32/bin/../lib/gcc/arm-none-eabi/7.2.1/../../../../arm-none-eabi/lib/thumb/v7e-m/fpv4-sp/hard\libg_nano.a(lib_a-fflush.o)
 .bss           0x00000000        0x0 d:/gnu/gcc-arm-none-eabi-7-2017-q4-major-win32/bin/../lib/gcc/arm-none-eabi/7.2.1/../../../../arm-none-eabi/lib/thumb/v7e-m/fpv4-sp/hard\libg_nano.a(lib_a-fflush.o)
 .text.fflush   0x00000000       0x24 d:/gnu/gcc-arm-none-eabi-7-2017-q4-major-win32/bin/../lib/gcc/arm-none-eabi/7.2.1/../../../../arm-none-eabi/lib/thumb/v7e-m/fpv4-sp/hard\libg_nano.a(lib_a-fflush.o)
 .text          0x00000000        0x0 d:/gnu/gcc-arm-none-eabi-7-2017-q4-major-win32/bin/../lib/gcc/arm-none-eabi/7.2.1/../../../../arm-none-eabi/lib/thumb/v7e-m/fpv4-sp/hard\libg_nano.a(lib_a-fvwrite.o)
 .data          0x00000000        0x0 d:/gnu/gcc-arm-none-eabi-7-2017-q4-major-win32/bin/../lib/gcc/arm-none-eabi/7.2.1/../../../../arm-none-eabi/lib/thumb/v7e-m/fpv4-sp/hard\libg_nano.a(lib_a-fvwrite.o)
 .bss           0x00000000        0x0 d:/gnu/gcc-arm-none-eabi-7-2017-q4-major-win32/bin/../lib/gcc/arm-none-eabi/7.2.1/../../../../arm-none-eabi/lib/thumb/v7e-m/fpv4-sp/hard\libg_nano.a(lib_a-fvwrite.o)
 .text.__sfvwrite_r
                0x00000000      0x29c d:/gnu/gcc-arm-none-eabi-7-2017-q4-major-win32/bin/../lib/gcc/arm-none-eabi/7.2.1/../../../../arm-none-eabi/lib/thumb/v7e-m/fpv4-sp/hard\libg_nano.a(lib_a-fvwrite.o)
 .debug_frame   0x00000000       0x3c d:/gnu/gcc-arm-none-eabi-7-2017-q4-major-win32/bin/../lib/gcc/arm-none-eabi/7.2.1/../../../../arm-none-eabi/lib/thumb/v7e-m/fpv4-sp/hard\libg_nano.a(lib_a-fvwrite.o)
 .ARM.attributes
                0x00000000       0x34 d:/gnu/gcc-arm-none-eabi-7-2017-q4-major-win32/bin/../lib/gcc/arm-none-eabi/7.2.1/../../../../arm-none-eabi/lib/thumb/v7e-m/fpv4-sp/hard\libg_nano.a(lib_a-fvwrite.o)
 .text          0x00000000        0x0 d:/gnu/gcc-arm-none-eabi-7-2017-q4-major-win32/bin/../lib/gcc/arm-none-eabi/7.2.1/../../../../arm-none-eabi/lib/thumb/v7e-m/fpv4-sp/hard\libg_nano.a(lib_a-lseekr.o)
 .data          0x00000000        0x0 d:/gnu/gcc-arm-none-eabi-7-2017-q4-major-win32/bin/../lib/gcc/arm-none-eabi/7.2.1/../../../../arm-none-eabi/lib/thumb/v7e-m/fpv4-sp/hard\libg_nano.a(lib_a-lseekr.o)
 .bss           0x00000000        0x0 d:/gnu/gcc-arm-none-eabi-7-2017-q4-major-win32/bin/../lib/gcc/arm-none-eabi/7.2.1/../../../../arm-none-eabi/lib/thumb/v7e-m/fpv4-sp/hard\libg_nano.a(lib_a-lseekr.o)
 .text          0x00000000        0x0 d:/gnu/gcc-arm-none-eabi-7-2017-q4-major-win32/bin/../lib/gcc/arm-none-eabi/7.2.1/../../../../arm-none-eabi/lib/thumb/v7e-m/fpv4-sp/hard\libg_nano.a(lib_a-makebuf.o)
 .data          0x00000000        0x0 d:/gnu/gcc-arm-none-eabi-7-2017-q4-major-win32/bin/../lib/gcc/arm-none-eabi/7.2.1/../../../../arm-none-eabi/lib/thumb/v7e-m/fpv4-sp/hard\libg_nano.a(lib_a-makebuf.o)
 .bss           0x00000000        0x0 d:/gnu/gcc-arm-none-eabi-7-2017-q4-major-win32/bin/../lib/gcc/arm-none-eabi/7.2.1/../../../../arm-none-eabi/lib/thumb/v7e-m/fpv4-sp/hard\libg_nano.a(lib_a-makebuf.o)
 .data          0x00000000        0x0 d:/gnu/gcc-arm-none-eabi-7-2017-q4-major-win32/bin/../lib/gcc/arm-none-eabi/7.2.1/../../../../arm-none-eabi/lib/thumb/v7e-m/fpv4-sp/hard\libg_nano.a(lib_a-memchr.o)
 .bss           0x00000000        0x0 d:/gnu/gcc-arm-none-eabi-7-2017-q4-major-win32/bin/../lib/gcc/arm-none-eabi/7.2.1/../../../../arm-none-eabi/lib/thumb/v7e-m/fpv4-sp/hard\libg_nano.a(lib_a-memchr.o)
 .text          0x00000000        0x0 d:/gnu/gcc-arm-none-eabi-7-2017-q4-major-win32/bin/../lib/gcc/arm-none-eabi/7.2.1/../../../../arm-none-eabi/lib/thumb/v7e-m/fpv4-sp/hard\libg_nano.a(lib_a-memmove.o)
 .data          0x00000000        0x0 d:/gnu/gcc-arm-none-eabi-7-2017-q4-major-win32/bin/../lib/gcc/arm-none-eabi/7.2.1/../../../../arm-none-eabi/lib/thumb/v7e-m/fpv4-sp/hard\libg_nano.a(lib_a-memmove.o)
 .bss           0x00000000        0x0 d:/gnu/gcc-arm-none-eabi-7-2017-q4-major-win32/bin/../lib/gcc/arm-none-eabi/7.2.1/../../../../arm-none-eabi/lib/thumb/v7e-m/fpv4-sp/hard\libg_nano.a(lib_a-memmove.o)
 .text.memmove  0x00000000       0x32 d:/gnu/gcc-arm-none-eabi-7-2017-q4-major-win32/bin/../lib/gcc/arm-none-eabi/7.2.1/../../../../arm-none-eabi/lib/thumb/v7e-m/fpv4-sp/hard\libg_nano.a(lib_a-memmove.o)
 .debug_frame   0x00000000       0x28 d:/gnu/gcc-arm-none-eabi-7-2017-q4-major-win32/bin/../lib/gcc/arm-none-eabi/7.2.1/../../../../arm-none-eabi/lib/thumb/v7e-m/fpv4-sp/hard\libg_nano.a(lib_a-memmove.o)
 .ARM.attributes
                0x00000000       0x34 d:/gnu/gcc-arm-none-eabi-7-2017-q4-major-win32/bin/../lib/gcc/arm-none-eabi/7.2.1/../../../../arm-none-eabi/lib/thumb/v7e-m/fpv4-sp/hard\libg_nano.a(lib_a-memmove.o)
 .text          0x00000000        0x0 d:/gnu/gcc-arm-none-eabi-7-2017-q4-major-win32/bin/../lib/gcc/arm-none-eabi/7.2.1/../../../../arm-none-eabi/lib/thumb/v7e-m/fpv4-sp/hard\libg_nano.a(lib_a-nano-msizer.o)
 .data          0x00000000        0x0 d:/gnu/gcc-arm-none-eabi-7-2017-q4-major-win32/bin/../lib/gcc/arm-none-eabi/7.2.1/../../../../arm-none-eabi/lib/thumb/v7e-m/fpv4-sp/hard\libg_nano.a(lib_a-nano-msizer.o)
 .bss           0x00000000        0x0 d:/gnu/gcc-arm-none-eabi-7-2017-q4-major-win32/bin/../lib/gcc/arm-none-eabi/7.2.1/../../../../arm-none-eabi/lib/thumb/v7e-m/fpv4-sp/hard\libg_nano.a(lib_a-nano-msizer.o)
 .text          0x00000000        0x0 d:/gnu/gcc-arm-none-eabi-7-2017-q4-major-win32/bin/../lib/gcc/arm-none-eabi/7.2.1/../../../../arm-none-eabi/lib/thumb/v7e-m/fpv4-sp/hard\libg_nano.a(lib_a-nano-svfscanf.o)
 .data          0x00000000        0x0 d:/gnu/gcc-arm-none-eabi-7-2017-q4-major-win32/bin/../lib/gcc/arm-none-eabi/7.2.1/../../../../arm-none-eabi/lib/thumb/v7e-m/fpv4-sp/hard\libg_nano.a(lib_a-nano-svfscanf.o)
 .bss           0x00000000        0x0 d:/gnu/gcc-arm-none-eabi-7-2017-q4-major-win32/bin/../lib/gcc/arm-none-eabi/7.2.1/../../../../arm-none-eabi/lib/thumb/v7e-m/fpv4-sp/hard\libg_nano.a(lib_a-nano-svfscanf.o)
 .text          0x00000000        0x0 d:/gnu/gcc-arm-none-eabi-7-2017-q4-major-win32/bin/../lib/gcc/arm-none-eabi/7.2.1/../../../../arm-none-eabi/lib/thumb/v7e-m/fpv4-sp/hard\libg_nano.a(lib_a-nano-vfscanf_i.o)
 .data          0x00000000        0x0 d:/gnu/gcc-arm-none-eabi-7-2017-q4-major-win32/bin/../lib/gcc/arm-none-eabi/7.2.1/../../../../arm-none-eabi/lib/thumb/v7e-m/fpv4-sp/hard\libg_nano.a(lib_a-nano-vfscanf_i.o)
 .bss           0x00000000        0x0 d:/gnu/gcc-arm-none-eabi-7-2017-q4-major-win32/bin/../lib/gcc/arm-none-eabi/7.2.1/../../../../arm-none-eabi/lib/thumb/v7e-m/fpv4-sp/hard\libg_nano.a(lib_a-nano-vfscanf_i.o)
 .text          0x00000000        0x0 d:/gnu/gcc-arm-none-eabi-7-2017-q4-major-win32/bin/../lib/gcc/arm-none-eabi/7.2.1/../../../../arm-none-eabi/lib/thumb/v7e-m/fpv4-sp/hard\libg_nano.a(lib_a-readr.o)
 .data          0x00000000        0x0 d:/gnu/gcc-arm-none-eabi-7-2017-q4-major-win32/bin/../lib/gcc/arm-none-eabi/7.2.1/../../../../arm-none-eabi/lib/thumb/v7e-m/fpv4-sp/hard\libg_nano.a(lib_a-readr.o)
 .bss           0x00000000        0x0 d:/gnu/gcc-arm-none-eabi-7-2017-q4-major-win32/bin/../lib/gcc/arm-none-eabi/7.2.1/../../../../arm-none-eabi/lib/thumb/v7e-m/fpv4-sp/hard\libg_nano.a(lib_a-readr.o)
 .text          0x00000000        0x0 d:/gnu/gcc-arm-none-eabi-7-2017-q4-major-win32/bin/../lib/gcc/arm-none-eabi/7.2.1/../../../../arm-none-eabi/lib/thumb/v7e-m/fpv4-sp/hard\libg_nano.a(lib_a-sccl.o)
 .data          0x00000000        0x0 d:/gnu/gcc-arm-none-eabi-7-2017-q4-major-win32/bin/../lib/gcc/arm-none-eabi/7.2.1/../../../../arm-none-eabi/lib/thumb/v7e-m/fpv4-sp/hard\libg_nano.a(lib_a-sccl.o)
 .bss           0x00000000        0x0 d:/gnu/gcc-arm-none-eabi-7-2017-q4-major-win32/bin/../lib/gcc/arm-none-eabi/7.2.1/../../../../arm-none-eabi/lib/thumb/v7e-m/fpv4-sp/hard\libg_nano.a(lib_a-sccl.o)
 .text          0x00000000        0x0 d:/gnu/gcc-arm-none-eabi-7-2017-q4-major-win32/bin/../lib/gcc/arm-none-eabi/7.2.1/../../../../arm-none-eabi/lib/thumb/v7e-m/fpv4-sp/hard\libg_nano.a(lib_a-ungetc.o)
 .data          0x00000000        0x0 d:/gnu/gcc-arm-none-eabi-7-2017-q4-major-win32/bin/../lib/gcc/arm-none-eabi/7.2.1/../../../../arm-none-eabi/lib/thumb/v7e-m/fpv4-sp/hard\libg_nano.a(lib_a-ungetc.o)
 .bss           0x00000000        0x0 d:/gnu/gcc-arm-none-eabi-7-2017-q4-major-win32/bin/../lib/gcc/arm-none-eabi/7.2.1/../../../../arm-none-eabi/lib/thumb/v7e-m/fpv4-sp/hard\libg_nano.a(lib_a-ungetc.o)
 .text._ungetc_r
                0x00000000       0xe4 d:/gnu/gcc-arm-none-eabi-7-2017-q4-major-win32/bin/../lib/gcc/arm-none-eabi/7.2.1/../../../../arm-none-eabi/lib/thumb/v7e-m/fpv4-sp/hard\libg_nano.a(lib_a-ungetc.o)
 .text.ungetc   0x00000000       0x10 d:/gnu/gcc-arm-none-eabi-7-2017-q4-major-win32/bin/../lib/gcc/arm-none-eabi/7.2.1/../../../../arm-none-eabi/lib/thumb/v7e-m/fpv4-sp/hard\libg_nano.a(lib_a-ungetc.o)
 .text          0x00000000        0x0 d:/gnu/gcc-arm-none-eabi-7-2017-q4-major-win32/bin/../lib/gcc/arm-none-eabi/7.2.1/../../../../arm-none-eabi/lib/thumb/v7e-m/fpv4-sp/hard\libg_nano.a(lib_a-fstatr.o)
 .data          0x00000000        0x0 d:/gnu/gcc-arm-none-eabi-7-2017-q4-major-win32/bin/../lib/gcc/arm-none-eabi/7.2.1/../../../../arm-none-eabi/lib/thumb/v7e-m/fpv4-sp/hard\libg_nano.a(lib_a-fstatr.o)
 .bss           0x00000000        0x0 d:/gnu/gcc-arm-none-eabi-7-2017-q4-major-win32/bin/../lib/gcc/arm-none-eabi/7.2.1/../../../../arm-none-eabi/lib/thumb/v7e-m/fpv4-sp/hard\libg_nano.a(lib_a-fstatr.o)
 .text          0x00000000        0x0 d:/gnu/gcc-arm-none-eabi-7-2017-q4-major-win32/bin/../lib/gcc/arm-none-eabi/7.2.1/../../../../arm-none-eabi/lib/thumb/v7e-m/fpv4-sp/hard\libg_nano.a(lib_a-isattyr.o)
 .data          0x00000000        0x0 d:/gnu/gcc-arm-none-eabi-7-2017-q4-major-win32/bin/../lib/gcc/arm-none-eabi/7.2.1/../../../../arm-none-eabi/lib/thumb/v7e-m/fpv4-sp/hard\libg_nano.a(lib_a-isattyr.o)
 .bss           0x00000000        0x0 d:/gnu/gcc-arm-none-eabi-7-2017-q4-major-win32/bin/../lib/gcc/arm-none-eabi/7.2.1/../../../../arm-none-eabi/lib/thumb/v7e-m/fpv4-sp/hard\libg_nano.a(lib_a-isattyr.o)
 .data          0x00000000        0x0 d:/gnu/gcc-arm-none-eabi-7-2017-q4-major-win32/bin/../lib/gcc/arm-none-eabi/7.2.1/thumb/v7e-m/fpv4-sp/hard\libgcc.a(_aeabi_ldivmod.o)
 .bss           0x00000000        0x0 d:/gnu/gcc-arm-none-eabi-7-2017-q4-major-win32/bin/../lib/gcc/arm-none-eabi/7.2.1/thumb/v7e-m/fpv4-sp/hard\libgcc.a(_aeabi_ldivmod.o)
 .data          0x00000000        0x0 d:/gnu/gcc-arm-none-eabi-7-2017-q4-major-win32/bin/../lib/gcc/arm-none-eabi/7.2.1/thumb/v7e-m/fpv4-sp/hard\libgcc.a(_udivmoddi4.o)
 .bss           0x00000000        0x0 d:/gnu/gcc-arm-none-eabi-7-2017-q4-major-win32/bin/../lib/gcc/arm-none-eabi/7.2.1/thumb/v7e-m/fpv4-sp/hard\libgcc.a(_udivmoddi4.o)
 .ARM.extab     0x00000000        0x0 d:/gnu/gcc-arm-none-eabi-7-2017-q4-major-win32/bin/../lib/gcc/arm-none-eabi/7.2.1/thumb/v7e-m/fpv4-sp/hard\libgcc.a(_udivmoddi4.o)
 .data          0x00000000        0x0 d:/gnu/gcc-arm-none-eabi-7-2017-q4-major-win32/bin/../lib/gcc/arm-none-eabi/7.2.1/thumb/v7e-m/fpv4-sp/hard\libgcc.a(_dvmd_tls.o)
 .bss           0x00000000        0x0 d:/gnu/gcc-arm-none-eabi-7-2017-q4-major-win32/bin/../lib/gcc/arm-none-eabi/7.2.1/thumb/v7e-m/fpv4-sp/hard\libgcc.a(_dvmd_tls.o)
 .data          0x00000000        0x0 d:/gnu/gcc-arm-none-eabi-7-2017-q4-major-win32/bin/../lib/gcc/arm-none-eabi/7.2.1/thumb/v7e-m/fpv4-sp/hard\libgcc.a(_aeabi_uldivmod.o)
 .bss           0x00000000        0x0 d:/gnu/gcc-arm-none-eabi-7-2017-q4-major-win32/bin/../lib/gcc/arm-none-eabi/7.2.1/thumb/v7e-m/fpv4-sp/hard\libgcc.a(_aeabi_uldivmod.o)
 .text          0x00000000        0x0 d:/gnu/gcc-arm-none-eabi-7-2017-q4-major-win32/bin/../lib/gcc/arm-none-eabi/7.2.1/thumb/v7e-m/fpv4-sp/hard/crtend.o
 .data          0x00000000        0x0 d:/gnu/gcc-arm-none-eabi-7-2017-q4-major-win32/bin/../lib/gcc/arm-none-eabi/7.2.1/thumb/v7e-m/fpv4-sp/hard/crtend.o
 .bss           0x00000000        0x0 d:/gnu/gcc-arm-none-eabi-7-2017-q4-major-win32/bin/../lib/gcc/arm-none-eabi/7.2.1/thumb/v7e-m/fpv4-sp/hard/crtend.o
 .eh_frame      0x00000000        0x4 d:/gnu/gcc-arm-none-eabi-7-2017-q4-major-win32/bin/../lib/gcc/arm-none-eabi/7.2.1/thumb/v7e-m/fpv4-sp/hard/crtend.o
 .ARM.attributes
                0x00000000       0x34 d:/gnu/gcc-arm-none-eabi-7-2017-q4-major-win32/bin/../lib/gcc/arm-none-eabi/7.2.1/thumb/v7e-m/fpv4-sp/hard/crtend.o
 .text          0x00000000        0x0 d:/gnu/gcc-arm-none-eabi-7-2017-q4-major-win32/bin/../lib/gcc/arm-none-eabi/7.2.1/thumb/v7e-m/fpv4-sp/hard/crtn.o
 .data          0x00000000        0x0 d:/gnu/gcc-arm-none-eabi-7-2017-q4-major-win32/bin/../lib/gcc/arm-none-eabi/7.2.1/thumb/v7e-m/fpv4-sp/hard/crtn.o
 .bss           0x00000000        0x0 d:/gnu/gcc-arm-none-eabi-7-2017-q4-major-win32/bin/../lib/gcc/arm-none-eabi/7.2.1/thumb/v7e-m/fpv4-sp/hard/crtn.o

Memory Configuration

Name             Origin             Length             Attributes
RAM              0x20000000         0x00020000         xrw
CCMRAM           0x10000000         0x00010000         rw
FLASH            0x08040000         0x000c0000         xr
*default*        0x00000000         0xffffffff

Linker script and memory map

LOAD d:/gnu/gcc-arm-none-eabi-7-2017-q4-major-win32/bin/../lib/gcc/arm-none-eabi/7.2.1/thumb/v7e-m/fpv4-sp/hard/crti.o
LOAD d:/gnu/gcc-arm-none-eabi-7-2017-q4-major-win32/bin/../lib/gcc/arm-none-eabi/7.2.1/thumb/v7e-m/fpv4-sp/hard/crtbegin.o
LOAD d:/gnu/gcc-arm-none-eabi-7-2017-q4-major-win32/bin/../lib/gcc/arm-none-eabi/7.2.1/../../../../arm-none-eabi/lib/thumb/v7e-m/fpv4-sp/hard/crt0.o
LOAD C:\Users\alien\AppData\Local\Temp\ccodVkrc.ltrans0.ltrans.o
LOAD C:\Users\alien\AppData\Local\Temp\ccodVkrc.ltrans1.ltrans.o
LOAD C:\Users\alien\AppData\Local\Temp\ccodVkrc.ltrans2.ltrans.o
LOAD C:\Users\alien\AppData\Local\Temp\ccodVkrc.ltrans3.ltrans.o
LOAD ./startup_stm32f407xx.o
LOAD d:/gnu/gcc-arm-none-eabi-7-2017-q4-major-win32/bin/../lib/gcc/arm-none-eabi/7.2.1/../../../../arm-none-eabi/lib/thumb/v7e-m/fpv4-sp/hard\libstdc++_nano.a
LOAD d:/gnu/gcc-arm-none-eabi-7-2017-q4-major-win32/bin/../lib/gcc/arm-none-eabi/7.2.1/../../../../arm-none-eabi/lib/thumb/v7e-m/fpv4-sp/hard\libm.a
START GROUP
LOAD d:/gnu/gcc-arm-none-eabi-7-2017-q4-major-win32/bin/../lib/gcc/arm-none-eabi/7.2.1/thumb/v7e-m/fpv4-sp/hard\libgcc.a
LOAD d:/gnu/gcc-arm-none-eabi-7-2017-q4-major-win32/bin/../lib/gcc/arm-none-eabi/7.2.1/../../../../arm-none-eabi/lib/thumb/v7e-m/fpv4-sp/hard\libg_nano.a
LOAD d:/gnu/gcc-arm-none-eabi-7-2017-q4-major-win32/bin/../lib/gcc/arm-none-eabi/7.2.1/../../../../arm-none-eabi/lib/thumb/v7e-m/fpv4-sp/hard\libc_nano.a
END GROUP
START GROUP
LOAD d:/gnu/gcc-arm-none-eabi-7-2017-q4-major-win32/bin/../lib/gcc/arm-none-eabi/7.2.1/thumb/v7e-m/fpv4-sp/hard\libgcc.a
LOAD d:/gnu/gcc-arm-none-eabi-7-2017-q4-major-win32/bin/../lib/gcc/arm-none-eabi/7.2.1/../../../../arm-none-eabi/lib/thumb/v7e-m/fpv4-sp/hard\libc_nano.a
END GROUP
LOAD d:/gnu/gcc-arm-none-eabi-7-2017-q4-major-win32/bin/../lib/gcc/arm-none-eabi/7.2.1/thumb/v7e-m/fpv4-sp/hard/crtend.o
LOAD d:/gnu/gcc-arm-none-eabi-7-2017-q4-major-win32/bin/../lib/gcc/arm-none-eabi/7.2.1/thumb/v7e-m/fpv4-sp/hard/crtn.o
                0x20020000                _estack = 0x20020000
                0x00000400                _Min_Heap_Size = 0x400
                0x00000400                _Min_Stack_Size = 0x400

.isr_vector     0x08040000      0x188
                0x08040000                . = ALIGN (0x4)
 *(.isr_vector)
 .isr_vector    0x08040000      0x188 ./startup_stm32f407xx.o
                0x08040000                g_pfnVectors
                0x08040188                . = ALIGN (0x4)

.text           0x08040190    0x13910
                0x08040190                . = ALIGN (0x4)
 *(.text)
 .text          0x08040190       0x40 d:/gnu/gcc-arm-none-eabi-7-2017-q4-major-win32/bin/../lib/gcc/arm-none-eabi/7.2.1/thumb/v7e-m/fpv4-sp/hard/crtbegin.o
 .text          0x080401d0       0x10 d:/gnu/gcc-arm-none-eabi-7-2017-q4-major-win32/bin/../lib/gcc/arm-none-eabi/7.2.1/../../../../arm-none-eabi/lib/thumb/v7e-m/fpv4-sp/hard\libg_nano.a(lib_a-strlen.o)
                0x080401d0                strlen
 .text          0x080401e0       0x14 d:/gnu/gcc-arm-none-eabi-7-2017-q4-major-win32/bin/../lib/gcc/arm-none-eabi/7.2.1/../../../../arm-none-eabi/lib/thumb/v7e-m/fpv4-sp/hard\libg_nano.a(lib_a-strcmp.o)
                0x080401e0                strcmp
 *fill*         0x080401f4        0xc 
 .text          0x08040200       0xa0 d:/gnu/gcc-arm-none-eabi-7-2017-q4-major-win32/bin/../lib/gcc/arm-none-eabi/7.2.1/../../../../arm-none-eabi/lib/thumb/v7e-m/fpv4-sp/hard\libg_nano.a(lib_a-memchr.o)
                0x08040200                memchr
 .text          0x080402a0       0xa0 d:/gnu/gcc-arm-none-eabi-7-2017-q4-major-win32/bin/../lib/gcc/arm-none-eabi/7.2.1/thumb/v7e-m/fpv4-sp/hard\libgcc.a(_aeabi_ldivmod.o)
                0x080402a0                __aeabi_ldivmod
 .text          0x08040340      0x2cc d:/gnu/gcc-arm-none-eabi-7-2017-q4-major-win32/bin/../lib/gcc/arm-none-eabi/7.2.1/thumb/v7e-m/fpv4-sp/hard\libgcc.a(_udivmoddi4.o)
                0x08040340                __udivmoddi4
 .text          0x0804060c        0x4 d:/gnu/gcc-arm-none-eabi-7-2017-q4-major-win32/bin/../lib/gcc/arm-none-eabi/7.2.1/thumb/v7e-m/fpv4-sp/hard\libgcc.a(_dvmd_tls.o)
                0x0804060c                __aeabi_idiv0
                0x0804060c                __aeabi_ldiv0
 .text          0x08040610       0x30 d:/gnu/gcc-arm-none-eabi-7-2017-q4-major-win32/bin/../lib/gcc/arm-none-eabi/7.2.1/thumb/v7e-m/fpv4-sp/hard\libgcc.a(_aeabi_uldivmod.o)
                0x08040610                __aeabi_uldivmod
 *(.text*)
 .text.tcp_getoptbyte
                0x08040640       0x40 C:\Users\alien\AppData\Local\Temp\ccodVkrc.ltrans0.ltrans.o
 .text.tcp_parseopt.isra.1
                0x08040680       0x74 C:\Users\alien\AppData\Local\Temp\ccodVkrc.ltrans0.ltrans.o
 .text.tcp_update_rcv_ann_wnd
                0x080406f4       0x36 C:\Users\alien\AppData\Local\Temp\ccodVkrc.ltrans0.ltrans.o
 .text.pbuf_header_impl.part.0
                0x0804072a       0x5a C:\Users\alien\AppData\Local\Temp\ccodVkrc.ltrans0.ltrans.o
 .text.pbuf_put_at
                0x08040784       0x16 C:\Users\alien\AppData\Local\Temp\ccodVkrc.ltrans0.ltrans.o
 .text.unlikely.pbuf_try_get_at
                0x0804079a       0x1c C:\Users\alien\AppData\Local\Temp\ccodVkrc.ltrans0.ltrans.o
 .text.ip4_addr_isbroadcast_u32
                0x080407b6       0x32 C:\Users\alien\AppData\Local\Temp\ccodVkrc.ltrans0.ltrans.o
 .text.pbuf_take
                0x080407e8       0x4a C:\Users\alien\AppData\Local\Temp\ccodVkrc.ltrans0.ltrans.o
 .text.pbuf_take_at
                0x08040832       0x5a C:\Users\alien\AppData\Local\Temp\ccodVkrc.ltrans0.ltrans.o
 .text.pbuf_copy
                0x0804088c       0x94 C:\Users\alien\AppData\Local\Temp\ccodVkrc.ltrans0.ltrans.o
 .text.dns_call_found
                0x08040920       0x9c C:\Users\alien\AppData\Local\Temp\ccodVkrc.ltrans0.ltrans.o
 .text.sys_mutex_new
                0x080409bc       0x1e C:\Users\alien\AppData\Local\Temp\ccodVkrc.ltrans0.ltrans.o
 *fill*         0x080409da        0x2 
 .text.vTaskModbusSlave
                0x080409dc      0x1e8 C:\Users\alien\AppData\Local\Temp\ccodVkrc.ltrans0.ltrans.o
 .text.tcp_recved
                0x08040bc4       0x48 C:\Users\alien\AppData\Local\Temp\ccodVkrc.ltrans0.ltrans.o
                0x08040bc4                tcp_recved
 .text.pbuf_copy_partial
                0x08040c0c       0x5c C:\Users\alien\AppData\Local\Temp\ccodVkrc.ltrans0.ltrans.o
                0x08040c0c                pbuf_copy_partial
 .text.pbuf_cat
                0x08040c68       0x1e C:\Users\alien\AppData\Local\Temp\ccodVkrc.ltrans0.ltrans.o
                0x08040c68                pbuf_cat
 .text.pbuf_clen
                0x08040c86       0x10 C:\Users\alien\AppData\Local\Temp\ccodVkrc.ltrans0.ltrans.o
                0x08040c86                pbuf_clen
 .text.pbuf_header
                0x08040c96        0xe C:\Users\alien\AppData\Local\Temp\ccodVkrc.ltrans0.ltrans.o
                0x08040c96                pbuf_header
 .text.lwip_htonl
                0x08040ca4        0x4 C:\Users\alien\AppData\Local\Temp\ccodVkrc.ltrans0.ltrans.o
                0x08040ca4                lwip_htonl
 .text.ip4_route
                0x08040ca8       0x58 C:\Users\alien\AppData\Local\Temp\ccodVkrc.ltrans0.ltrans.o
                0x08040ca8                ip4_route
 .text.tcp_eff_send_mss_impl
                0x08040d00       0x1e C:\Users\alien\AppData\Local\Temp\ccodVkrc.ltrans0.ltrans.o
                0x08040d00                tcp_eff_send_mss_impl
 *fill*         0x08040d1e        0x2 
 .text.etharp_request
                0x08040d20       0x20 C:\Users\alien\AppData\Local\Temp\ccodVkrc.ltrans0.ltrans.o
                0x08040d20                etharp_request
 .text.ethernet_output
                0x08040d40       0x4e C:\Users\alien\AppData\Local\Temp\ccodVkrc.ltrans0.ltrans.o
                0x08040d40                ethernet_output
 *fill*         0x08040d8e        0x2 
 .text.etharp_output_to_arp_index
                0x08040d90       0x74 C:\Users\alien\AppData\Local\Temp\ccodVkrc.ltrans0.ltrans.o
 .text.sys_arch_protect
                0x08040e04       0x14 C:\Users\alien\AppData\Local\Temp\ccodVkrc.ltrans0.ltrans.o
                0x08040e04                sys_arch_protect
 .text.pbuf_ref
                0x08040e18       0x1a C:\Users\alien\AppData\Local\Temp\ccodVkrc.ltrans0.ltrans.o
                0x08040e18                pbuf_ref
 *fill*         0x08040e32        0x2 
 .text.memp_free.part.2
                0x08040e34       0x28 C:\Users\alien\AppData\Local\Temp\ccodVkrc.ltrans0.ltrans.o
                0x08040e34                memp_free.part.2
 .text.memp_malloc
                0x08040e5c       0x24 C:\Users\alien\AppData\Local\Temp\ccodVkrc.ltrans0.ltrans.o
                0x08040e5c                memp_malloc
 .text.sys_mutex_lock
                0x08040e80        0x6 C:\Users\alien\AppData\Local\Temp\ccodVkrc.ltrans0.ltrans.o
                0x08040e80                sys_mutex_lock
 .text.sys_arch_sem_wait
                0x08040e86       0x36 C:\Users\alien\AppData\Local\Temp\ccodVkrc.ltrans0.ltrans.o
                0x08040e86                sys_arch_sem_wait
 .text.sys_arch_mbox_fetch
                0x08040ebc       0x44 C:\Users\alien\AppData\Local\Temp\ccodVkrc.ltrans0.ltrans.o
                0x08040ebc                sys_arch_mbox_fetch
 .text.sys_mbox_trypost
                0x08040f00       0x14 C:\Users\alien\AppData\Local\Temp\ccodVkrc.ltrans0.ltrans.o
                0x08040f00                sys_mbox_trypost
 .text.pbuf_pool_is_empty
                0x08040f14       0x5c C:\Users\alien\AppData\Local\Temp\ccodVkrc.ltrans0.ltrans.o
 .text.sys_mbox_free
                0x08040f70       0x24 C:\Users\alien\AppData\Local\Temp\ccodVkrc.ltrans0.ltrans.o
                0x08040f70                sys_mbox_free
 .text.SystemInit
                0x08040f94       0x4c C:\Users\alien\AppData\Local\Temp\ccodVkrc.ltrans0.ltrans.o
                0x08040f94                SystemInit
 .text._read    0x08040fe0       0x1c C:\Users\alien\AppData\Local\Temp\ccodVkrc.ltrans0.ltrans.o
                0x08040fe0                _read
 .text._lseek   0x08040ffc        0x4 C:\Users\alien\AppData\Local\Temp\ccodVkrc.ltrans0.ltrans.o
                0x08040ffc                _lseek
 .text._isatty  0x08041000        0x4 C:\Users\alien\AppData\Local\Temp\ccodVkrc.ltrans0.ltrans.o
                0x08041000                _isatty
 .text._fstat   0x08041004        0xa C:\Users\alien\AppData\Local\Temp\ccodVkrc.ltrans0.ltrans.o
                0x08041004                _fstat
 .text._close   0x0804100e        0x6 C:\Users\alien\AppData\Local\Temp\ccodVkrc.ltrans0.ltrans.o
                0x0804100e                _close
 .text._write   0x08041014       0x1c C:\Users\alien\AppData\Local\Temp\ccodVkrc.ltrans0.ltrans.o
                0x08041014                _write
 .text._sbrk    0x08041030       0x40 C:\Users\alien\AppData\Local\Temp\ccodVkrc.ltrans0.ltrans.o
                0x08041030                _sbrk
 .text.assert_failed
                0x08041070       0x10 C:\Users\alien\AppData\Local\Temp\ccodVkrc.ltrans0.ltrans.o
                0x08041070                assert_failed
 .text.ExecuteInternalCoilOutputOFF
                0x08041080       0x2c C:\Users\alien\AppData\Local\Temp\ccodVkrc.ltrans0.ltrans.o
                0x08041080                ExecuteInternalCoilOutputOFF
 .text.ExecuteInternalCoilOutputON
                0x080410ac       0x2c C:\Users\alien\AppData\Local\Temp\ccodVkrc.ltrans0.ltrans.o
                0x080410ac                ExecuteInternalCoilOutputON
 .text.vTaskUserConfig
                0x080410d8      0x2d4 C:\Users\alien\AppData\Local\Temp\ccodVkrc.ltrans0.ltrans.o
 .text.sys_sem_signal
                0x080413ac        0x6 C:\Users\alien\AppData\Local\Temp\ccodVkrc.ltrans0.ltrans.o
                0x080413ac                sys_mutex_unlock
                0x080413ac                sys_sem_signal
 *fill*         0x080413b2        0x2 
 .text.pbuf_free
                0x080413b4      0x11c C:\Users\alien\AppData\Local\Temp\ccodVkrc.ltrans0.ltrans.o
                0x080413b4                pbuf_free
 .text.tcp_seg_free
                0x080414d0       0x1c C:\Users\alien\AppData\Local\Temp\ccodVkrc.ltrans0.ltrans.o
                0x080414d0                tcp_seg_free
 .text.tcp_create_segment.lto_priv.322
                0x080414ec       0x90 C:\Users\alien\AppData\Local\Temp\ccodVkrc.ltrans0.ltrans.o
                0x080414ec                tcp_create_segment.lto_priv.322
 .text.tcp_segs_free
                0x0804157c       0x10 C:\Users\alien\AppData\Local\Temp\ccodVkrc.ltrans0.ltrans.o
                0x0804157c                tcp_segs_free
 .text.tcp_pcb_purge
                0x0804158c       0x40 C:\Users\alien\AppData\Local\Temp\ccodVkrc.ltrans0.ltrans.o
 .text.tcp_pcb_remove
                0x080415cc       0x4e C:\Users\alien\AppData\Local\Temp\ccodVkrc.ltrans0.ltrans.o
 *fill*         0x0804161a        0x2 
 .text.tcp_abandon
                0x0804161c       0xcc C:\Users\alien\AppData\Local\Temp\ccodVkrc.ltrans0.ltrans.o
 .text.tcp_kill_state
                0x080416e8       0x3c C:\Users\alien\AppData\Local\Temp\ccodVkrc.ltrans0.ltrans.o
 .text.tcp_abort
                0x08041724        0x6 C:\Users\alien\AppData\Local\Temp\ccodVkrc.ltrans0.ltrans.o
                0x08041724                tcp_abort
 *fill*         0x0804172a        0x2 
 .text.tcp_alloc
                0x0804172c      0x11c C:\Users\alien\AppData\Local\Temp\ccodVkrc.ltrans0.ltrans.o
                0x0804172c                tcp_alloc
 .text.tcp_accept_null.lto_priv.320
                0x08041848        0xe C:\Users\alien\AppData\Local\Temp\ccodVkrc.ltrans0.ltrans.o
                0x08041848                tcp_accept_null.lto_priv.320
 *fill*         0x08041856        0x2 
 .text.pbuf_free_ooseq_callback
                0x08041858       0x30 C:\Users\alien\AppData\Local\Temp\ccodVkrc.ltrans0.ltrans.o
 .text.dns_recv.lto_priv.319
                0x08041888      0x270 C:\Users\alien\AppData\Local\Temp\ccodVkrc.ltrans0.ltrans.o
                0x08041888                dns_recv.lto_priv.319
 .text.ipfrag_free_pbuf_custom
                0x08041af8       0x18 C:\Users\alien\AppData\Local\Temp\ccodVkrc.ltrans0.ltrans.o
 .text.etharp_free_entry
                0x08041b10       0x28 C:\Users\alien\AppData\Local\Temp\ccodVkrc.ltrans0.ltrans.o
 .text.etharp_find_entry.isra.0
                0x08041b38       0xbc C:\Users\alien\AppData\Local\Temp\ccodVkrc.ltrans0.ltrans.o
 .text.etharp_tmr
                0x08041bf4       0x60 C:\Users\alien\AppData\Local\Temp\ccodVkrc.ltrans0.ltrans.o
 .text.startup.main
                0x08041c54     0x154c C:\Users\alien\AppData\Local\Temp\ccodVkrc.ltrans0.ltrans.o
                0x08041c54                main
 .text.pbuf_realloc
                0x080431a0      0x124 C:\Users\alien\AppData\Local\Temp\ccodVkrc.ltrans0.ltrans.o
 .text.unlikely.tcp_oos_insert_segment
                0x080432c4       0x6c C:\Users\alien\AppData\Local\Temp\ccodVkrc.ltrans0.ltrans.o
 .text.pbuf_alloc
                0x08043330      0x1e0 C:\Users\alien\AppData\Local\Temp\ccodVkrc.ltrans0.ltrans.o
                0x08043330                pbuf_alloc
 .text.tcp_enqueue_flags
                0x08043510       0x8a C:\Users\alien\AppData\Local\Temp\ccodVkrc.ltrans0.ltrans.o
 .text.tcp_send_fin
                0x0804359a       0x30 C:\Users\alien\AppData\Local\Temp\ccodVkrc.ltrans0.ltrans.o
 *fill*         0x080435ca        0x2 
 .text.tcp_close_shutdown.lto_priv.324
                0x080435cc      0x170 C:\Users\alien\AppData\Local\Temp\ccodVkrc.ltrans0.ltrans.o
                0x080435cc                tcp_close_shutdown.lto_priv.324
 .text.tcp_close
                0x0804373c       0x14 C:\Users\alien\AppData\Local\Temp\ccodVkrc.ltrans0.ltrans.o
                0x0804373c                tcp_close
 .text.tcp_recv_null
                0x08043750       0x24 C:\Users\alien\AppData\Local\Temp\ccodVkrc.ltrans0.ltrans.o
 .text.tcp_process_refused_data
                0x08043774       0x66 C:\Users\alien\AppData\Local\Temp\ccodVkrc.ltrans0.ltrans.o
 .text.tcp_pbuf_prealloc.lto_priv.323
                0x080437da       0x50 C:\Users\alien\AppData\Local\Temp\ccodVkrc.ltrans0.ltrans.o
                0x080437da                tcp_pbuf_prealloc.lto_priv.323
 *fill*         0x0804382a        0x2 
 .text.dns_send
                0x0804382c      0x134 C:\Users\alien\AppData\Local\Temp\ccodVkrc.ltrans0.ltrans.o
 .text.dns_check_entry.lto_priv.321
                0x08043960       0xb8 C:\Users\alien\AppData\Local\Temp\ccodVkrc.ltrans0.ltrans.o
                0x08043960                dns_check_entry.lto_priv.321
 .text.dns_tmr  0x08043a18       0x1e C:\Users\alien\AppData\Local\Temp\ccodVkrc.ltrans0.ltrans.o
 *fill*         0x08043a36        0x2 
 .text.ip4_output_if_src
                0x08043a38      0x1ec C:\Users\alien\AppData\Local\Temp\ccodVkrc.ltrans0.ltrans.o
                0x08043a38                ip4_output_if_src
 .text.ip4_output_if
                0x08043c24       0x22 C:\Users\alien\AppData\Local\Temp\ccodVkrc.ltrans0.ltrans.o
                0x08043c24                ip4_output_if
 .text.tcp_send_empty_ack
                0x08043c46       0x6a C:\Users\alien\AppData\Local\Temp\ccodVkrc.ltrans0.ltrans.o
                0x08043c46                tcp_send_empty_ack
 .text.unlikely.tcp_receive
                0x08043cb0      0x718 C:\Users\alien\AppData\Local\Temp\ccodVkrc.ltrans0.ltrans.o
 .text.tcp_tmr  0x080443c8      0x434 C:\Users\alien\AppData\Local\Temp\ccodVkrc.ltrans0.ltrans.o
                0x080443c8                tcp_tmr
 .text.icmp_send_response.isra.0
                0x080447fc       0x6e C:\Users\alien\AppData\Local\Temp\ccodVkrc.ltrans0.ltrans.o
 *fill*         0x0804486a        0x2 
 .text.ip_reass_free_complete_datagram
                0x0804486c       0x84 C:\Users\alien\AppData\Local\Temp\ccodVkrc.ltrans0.ltrans.o
 .text.ip_reass_remove_oldest_datagram
                0x080448f0       0x78 C:\Users\alien\AppData\Local\Temp\ccodVkrc.ltrans0.ltrans.o
 .text.ip_reass_tmr
                0x08044968       0x28 C:\Users\alien\AppData\Local\Temp\ccodVkrc.ltrans0.ltrans.o
 .text.ip4_input
                0x08044990      0xe84 C:\Users\alien\AppData\Local\Temp\ccodVkrc.ltrans0.ltrans.o
                0x08044990                ip4_input
 .text.ethernet_input
                0x08045814      0x1e4 C:\Users\alien\AppData\Local\Temp\ccodVkrc.ltrans0.ltrans.o
                0x08045814                ethernet_input
 .text.etharp_output
                0x080459f8      0x1ac C:\Users\alien\AppData\Local\Temp\ccodVkrc.ltrans0.ltrans.o
 .text.IAP_tftp_send_ack_packet
                0x08045ba4       0x7c C:\Users\alien\AppData\Local\Temp\ccodVkrc.ltrans0.ltrans.o
 .text.IAP_wrq_recv
                0x08045c20      0x12c C:\Users\alien\AppData\Local\Temp\ccodVkrc.ltrans0.ltrans.o
 .text.vTaskTftpd
                0x08045d4c      0x110 C:\Users\alien\AppData\Local\Temp\ccodVkrc.ltrans0.ltrans.o
 .text.vTaskModbusMaster
                0x08045e5c      0x234 C:\Users\alien\AppData\Local\Temp\ccodVkrc.ltrans0.ltrans.o
 .text.Frame_getSpaceLeft
                0x08046090        0x6 C:\Users\alien\AppData\Local\Temp\ccodVkrc.ltrans1.ltrans.o
 .text.Frame_getMsgSize
                0x08046096        0x6 C:\Users\alien\AppData\Local\Temp\ccodVkrc.ltrans1.ltrans.o
 .text.Frame_appendBytes
                0x0804609c        0x6 C:\Users\alien\AppData\Local\Temp\ccodVkrc.ltrans1.ltrans.o
 .text.Frame_setNextByte
                0x080460a2        0x6 C:\Users\alien\AppData\Local\Temp\ccodVkrc.ltrans1.ltrans.o
 .text.InformationObject_encodeBase.isra.0
                0x080460a8       0x48 C:\Users\alien\AppData\Local\Temp\ccodVkrc.ltrans1.ltrans.o
 .text.DelayAcquisitionCommand_encode.lto_priv.296
                0x080460f0       0x44 C:\Users\alien\AppData\Local\Temp\ccodVkrc.ltrans1.ltrans.o
                0x080460f0                DelayAcquisitionCommand_encode.lto_priv.296
 .text.ClockSynchronizationCommand_encode.lto_priv.294
                0x08046134       0x44 C:\Users\alien\AppData\Local\Temp\ccodVkrc.ltrans1.ltrans.o
                0x08046134                ClockSynchronizationCommand_encode.lto_priv.294
 .text.ReadCommand_encode.lto_priv.293
                0x08046178       0x36 C:\Users\alien\AppData\Local\Temp\ccodVkrc.ltrans1.ltrans.o
                0x08046178                ReadCommand_encode.lto_priv.293
 .text.Bitstring32Command_encode.lto_priv.282
                0x080461ae       0x44 C:\Users\alien\AppData\Local\Temp\ccodVkrc.ltrans1.ltrans.o
                0x080461ae                Bitstring32Command_encode.lto_priv.282
 .text.Bitstring32CommandWithCP56Time2a_encode.lto_priv.289
                0x080461f2       0x42 C:\Users\alien\AppData\Local\Temp\ccodVkrc.ltrans1.ltrans.o
                0x080461f2                Bitstring32CommandWithCP56Time2a_encode.lto_priv.289
 .text.SetpointCommandNormalized_encode.lto_priv.279
                0x08046234       0x4c C:\Users\alien\AppData\Local\Temp\ccodVkrc.ltrans1.ltrans.o
                0x08046234                SetpointCommandNormalized_encode.lto_priv.279
 .text.SetpointCommandScaled_encode
                0x08046280        0x4 C:\Users\alien\AppData\Local\Temp\ccodVkrc.ltrans1.ltrans.o
                0x08046280                SetpointCommandScaled_encode.lto_priv.280
 .text.SetpointCommandNormalizedWithCP56Time2a_encode.lto_priv.286
                0x08046284       0x42 C:\Users\alien\AppData\Local\Temp\ccodVkrc.ltrans1.ltrans.o
                0x08046284                SetpointCommandNormalizedWithCP56Time2a_encode.lto_priv.286
 .text.SetpointCommandScaledWithCP56Time2a_encode
                0x080462c6        0x4 C:\Users\alien\AppData\Local\Temp\ccodVkrc.ltrans1.ltrans.o
                0x080462c6                SetpointCommandScaledWithCP56Time2a_encode.lto_priv.287
 .text.SingleCommand_encode.lto_priv.276
                0x080462ca       0x40 C:\Users\alien\AppData\Local\Temp\ccodVkrc.ltrans1.ltrans.o
                0x080462ca                SingleCommand_encode.lto_priv.276
 .text.EndOfInitialization_encode
                0x0804630a        0x4 C:\Users\alien\AppData\Local\Temp\ccodVkrc.ltrans1.ltrans.o
                0x0804630a                EndOfInitialization_encode.lto_priv.290
 .text.ParameterActivation_encode
                0x0804630e        0x4 C:\Users\alien\AppData\Local\Temp\ccodVkrc.ltrans1.ltrans.o
                0x0804630e                ParameterActivation_encode.lto_priv.297
 .text.ResetProcessCommand_encode
                0x08046312        0x4 C:\Users\alien\AppData\Local\Temp\ccodVkrc.ltrans1.ltrans.o
                0x08046312                ResetProcessCommand_encode.lto_priv.295
 .text.CounterInterrogationCommand_encode
                0x08046316        0x4 C:\Users\alien\AppData\Local\Temp\ccodVkrc.ltrans1.ltrans.o
                0x08046316                CounterInterrogationCommand_encode.lto_priv.292
 .text.InterrogationCommand_encode
                0x0804631a        0x4 C:\Users\alien\AppData\Local\Temp\ccodVkrc.ltrans1.ltrans.o
                0x0804631a                InterrogationCommand_encode.lto_priv.291
 .text.StepCommand_encode
                0x0804631e        0x4 C:\Users\alien\AppData\Local\Temp\ccodVkrc.ltrans1.ltrans.o
                0x0804631e                StepCommand_encode.lto_priv.278
 .text.DoubleCommand_encode
                0x08046322        0x4 C:\Users\alien\AppData\Local\Temp\ccodVkrc.ltrans1.ltrans.o
                0x08046322                DoubleCommand_encode.lto_priv.277
 .text.SingleCommandWithCP56Time2a_encode.lto_priv.283
                0x08046326       0x42 C:\Users\alien\AppData\Local\Temp\ccodVkrc.ltrans1.ltrans.o
                0x08046326                SingleCommandWithCP56Time2a_encode.lto_priv.283
 .text.StepCommandWithCP56Time2a_encode
                0x08046368        0x4 C:\Users\alien\AppData\Local\Temp\ccodVkrc.ltrans1.ltrans.o
                0x08046368                StepCommandWithCP56Time2a_encode.lto_priv.285
 .text.DoubleCommandWithCP56Time2a_encode
                0x0804636c        0x4 C:\Users\alien\AppData\Local\Temp\ccodVkrc.ltrans1.ltrans.o
                0x0804636c                DoubleCommandWithCP56Time2a_encode.lto_priv.284
 .text.PackedSinglePointWithSCD_encode.lto_priv.255
                0x08046370       0x4c C:\Users\alien\AppData\Local\Temp\ccodVkrc.ltrans1.ltrans.o
                0x08046370                PackedSinglePointWithSCD_encode.lto_priv.255
 .text.PackedStartEventsOfProtectionEquipmentWithCP56Time2a_encode.lto_priv.248
                0x080463bc       0x60 C:\Users\alien\AppData\Local\Temp\ccodVkrc.ltrans1.ltrans.o
                0x080463bc                PackedStartEventsOfProtectionEquipmentWithCP56Time2a_encode.lto_priv.248
 .text.PackedOutputCircuitInfoWithCP56Time2a_encode
                0x0804641c        0x4 C:\Users\alien\AppData\Local\Temp\ccodVkrc.ltrans1.ltrans.o
                0x0804641c                PackedOutputCircuitInfoWithCP56Time2a_encode.lto_priv.247
 .text.PackedStartEventsOfProtectionEquipment_encode.lto_priv.257
                0x08046420       0x60 C:\Users\alien\AppData\Local\Temp\ccodVkrc.ltrans1.ltrans.o
                0x08046420                PackedStartEventsOfProtectionEquipment_encode.lto_priv.257
 .text.PacketOutputCircuitInfo_encode
                0x08046480        0x4 C:\Users\alien\AppData\Local\Temp\ccodVkrc.ltrans1.ltrans.o
                0x08046480                PacketOutputCircuitInfo_encode.lto_priv.256
 .text.EventOfProtectionEquipmentWithCP56Time2a_encode.lto_priv.249
                0x08046484       0x58 C:\Users\alien\AppData\Local\Temp\ccodVkrc.ltrans1.ltrans.o
                0x08046484                EventOfProtectionEquipmentWithCP56Time2a_encode.lto_priv.249
 .text.EventOfProtectionEquipment_encode.lto_priv.258
                0x080464dc       0x58 C:\Users\alien\AppData\Local\Temp\ccodVkrc.ltrans1.ltrans.o
                0x080464dc                EventOfProtectionEquipment_encode.lto_priv.258
 .text.IntegratedTotals_encode.lto_priv.270
                0x08046534       0x44 C:\Users\alien\AppData\Local\Temp\ccodVkrc.ltrans1.ltrans.o
                0x08046534                IntegratedTotals_encode.lto_priv.270
 .text.IntegratedTotalsWithCP56Time2a_encode.lto_priv.275
                0x08046578       0x42 C:\Users\alien\AppData\Local\Temp\ccodVkrc.ltrans1.ltrans.o
                0x08046578                IntegratedTotalsWithCP56Time2a_encode.lto_priv.275
 .text.IntegratedTotalsWithCP24Time2a_encode.lto_priv.271
                0x080465ba       0x42 C:\Users\alien\AppData\Local\Temp\ccodVkrc.ltrans1.ltrans.o
                0x080465ba                IntegratedTotalsWithCP24Time2a_encode.lto_priv.271
 .text.MeasuredValueShort_encode.lto_priv.244
                0x080465fc       0x4c C:\Users\alien\AppData\Local\Temp\ccodVkrc.ltrans1.ltrans.o
                0x080465fc                MeasuredValueShort_encode.lto_priv.244
 .text.SetpointCommandShort_encode
                0x08046648        0x4 C:\Users\alien\AppData\Local\Temp\ccodVkrc.ltrans1.ltrans.o
                0x08046648                SetpointCommandShort_encode.lto_priv.281
 .text.MeasuredValueShortWithCP56Time2a_encode.lto_priv.250
                0x0804664c       0x42 C:\Users\alien\AppData\Local\Temp\ccodVkrc.ltrans1.ltrans.o
                0x0804664c                MeasuredValueShortWithCP56Time2a_encode.lto_priv.250
 .text.SetpointCommandShortWithCP56Time2a_encode
                0x0804668e        0x4 C:\Users\alien\AppData\Local\Temp\ccodVkrc.ltrans1.ltrans.o
                0x0804668e                SetpointCommandShortWithCP56Time2a_encode.lto_priv.288
 .text.MeasuredValueShortWithCP24Time2a_encode.lto_priv.259
                0x08046692       0x42 C:\Users\alien\AppData\Local\Temp\ccodVkrc.ltrans1.ltrans.o
                0x08046692                MeasuredValueShortWithCP24Time2a_encode.lto_priv.259
 .text.MeasuredValueNormalizedWithoutQuality_encode.lto_priv.272
                0x080466d4       0x48 C:\Users\alien\AppData\Local\Temp\ccodVkrc.ltrans1.ltrans.o
                0x080466d4                MeasuredValueNormalizedWithoutQuality_encode.lto_priv.272
 .text.MeasuredValueNormalized_encode.lto_priv.246
                0x0804671c       0x50 C:\Users\alien\AppData\Local\Temp\ccodVkrc.ltrans1.ltrans.o
                0x0804671c                MeasuredValueNormalized_encode.lto_priv.246
 .text.MeasuredValueScaled_encode.lto_priv.245
                0x0804676c        0x4 C:\Users\alien\AppData\Local\Temp\ccodVkrc.ltrans1.ltrans.o
                0x0804676c                MeasuredValueScaled_encode.lto_priv.245
 .text.MeasuredValueNormalizedWithCP56Time2a_encode.lto_priv.252
                0x08046770       0x42 C:\Users\alien\AppData\Local\Temp\ccodVkrc.ltrans1.ltrans.o
                0x08046770                MeasuredValueNormalizedWithCP56Time2a_encode.lto_priv.252
 .text.MeasuredValueScaledWithCP56Time2a_encode
                0x080467b2        0x4 C:\Users\alien\AppData\Local\Temp\ccodVkrc.ltrans1.ltrans.o
                0x080467b2                MeasuredValueScaledWithCP56Time2a_encode.lto_priv.251
 .text.MeasuredValueNormalizedWithCP24Time2a_encode.lto_priv.261
                0x080467b6       0x42 C:\Users\alien\AppData\Local\Temp\ccodVkrc.ltrans1.ltrans.o
                0x080467b6                MeasuredValueNormalizedWithCP24Time2a_encode.lto_priv.261
 .text.MeasuredValueScaledWithCP24Time2a_encode
                0x080467f8        0x4 C:\Users\alien\AppData\Local\Temp\ccodVkrc.ltrans1.ltrans.o
                0x080467f8                MeasuredValueScaledWithCP24Time2a_encode.lto_priv.260
 .text.Bitstring32WithCP56Time2a_encode.lto_priv.274
                0x080467fc       0x86 C:\Users\alien\AppData\Local\Temp\ccodVkrc.ltrans1.ltrans.o
                0x080467fc                Bitstring32WithCP56Time2a_encode.lto_priv.274
 .text.Bitstring32WithCP24Time2a_encode.lto_priv.269
                0x08046882       0x86 C:\Users\alien\AppData\Local\Temp\ccodVkrc.ltrans1.ltrans.o
                0x08046882                Bitstring32WithCP24Time2a_encode.lto_priv.269
 .text.BitString32_encode.lto_priv.268
                0x08046908       0x7a C:\Users\alien\AppData\Local\Temp\ccodVkrc.ltrans1.ltrans.o
                0x08046908                BitString32_encode.lto_priv.268
 .text.SinglePointWithCP56Time2a_encode.lto_priv.254
                0x08046982       0x54 C:\Users\alien\AppData\Local\Temp\ccodVkrc.ltrans1.ltrans.o
                0x08046982                SinglePointWithCP56Time2a_encode.lto_priv.254
 .text.SinglePointWithCP24Time2a_encode.lto_priv.262
                0x080469d6       0x54 C:\Users\alien\AppData\Local\Temp\ccodVkrc.ltrans1.ltrans.o
                0x080469d6                SinglePointWithCP24Time2a_encode.lto_priv.262
 .text.DoublePointWithCP56Time2a_encode.lto_priv.273
                0x08046a2a       0x52 C:\Users\alien\AppData\Local\Temp\ccodVkrc.ltrans1.ltrans.o
                0x08046a2a                DoublePointWithCP56Time2a_encode.lto_priv.273
 .text.DoublePointWithCP24Time2a_encode.lto_priv.265
                0x08046a7c       0x52 C:\Users\alien\AppData\Local\Temp\ccodVkrc.ltrans1.ltrans.o
                0x08046a7c                DoublePointWithCP24Time2a_encode.lto_priv.265
 .text.DoublePointInformation_encode.lto_priv.264
                0x08046ace       0x46 C:\Users\alien\AppData\Local\Temp\ccodVkrc.ltrans1.ltrans.o
                0x08046ace                DoublePointInformation_encode.lto_priv.264
 .text.StepPositionWithCP24Time2a_encode.lto_priv.267
                0x08046b14       0x54 C:\Users\alien\AppData\Local\Temp\ccodVkrc.ltrans1.ltrans.o
                0x08046b14                StepPositionWithCP24Time2a_encode.lto_priv.267
 .text.StepPositionWithCP56Time2a_encode.lto_priv.253
                0x08046b68       0x50 C:\Users\alien\AppData\Local\Temp\ccodVkrc.ltrans1.ltrans.o
                0x08046b68                StepPositionWithCP56Time2a_encode.lto_priv.253
 .text.StepPositionInformation_encode.lto_priv.266
                0x08046bb8       0x48 C:\Users\alien\AppData\Local\Temp\ccodVkrc.ltrans1.ltrans.o
                0x08046bb8                StepPositionInformation_encode.lto_priv.266
 .text.SinglePointInformation_encode.lto_priv.263
                0x08046c00       0x48 C:\Users\alien\AppData\Local\Temp\ccodVkrc.ltrans1.ltrans.o
                0x08046c00                SinglePointInformation_encode.lto_priv.263
 .text.InformationObject_destroy
                0x08046c48        0x6 C:\Users\alien\AppData\Local\Temp\ccodVkrc.ltrans1.ltrans.o
 .text.ASDU_getCA
                0x08046c4e       0x1a C:\Users\alien\AppData\Local\Temp\ccodVkrc.ltrans1.ltrans.o
 .text.ASDU_setCOT
                0x08046c68        0xe C:\Users\alien\AppData\Local\Temp\ccodVkrc.ltrans1.ltrans.o
 .text.ASDU_encode
                0x08046c76       0x10 C:\Users\alien\AppData\Local\Temp\ccodVkrc.ltrans1.ltrans.o
 .text.asduFrame_getSpaceLeft
                0x08046c86        0xe C:\Users\alien\AppData\Local\Temp\ccodVkrc.ltrans1.ltrans.o
 .text.asduFrame_appendBytes
                0x08046c94       0x28 C:\Users\alien\AppData\Local\Temp\ccodVkrc.ltrans1.ltrans.o
 .text.asduFrame_setNextByte
                0x08046cbc       0x10 C:\Users\alien\AppData\Local\Temp\ccodVkrc.ltrans1.ltrans.o
 .text.BufferFrame_destroy
                0x08046ccc        0x2 C:\Users\alien\AppData\Local\Temp\ccodVkrc.ltrans1.ltrans.o
 .text.asduFrame_destroy
                0x08046cce        0x2 C:\Users\alien\AppData\Local\Temp\ccodVkrc.ltrans1.ltrans.o
 .text.resetT3Timeout
                0x08046cd0       0x2c C:\Users\alien\AppData\Local\Temp\ccodVkrc.ltrans1.ltrans.o
 .text.isSentBufferFull
                0x08046cfc       0x20 C:\Users\alien\AppData\Local\Temp\ccodVkrc.ltrans1.ltrans.o
 .text.BufferFrame_getSpaceLeft
                0x08046d1c        0xa C:\Users\alien\AppData\Local\Temp\ccodVkrc.ltrans1.ltrans.o
 .text.BufferFrame_getBuffer
                0x08046d26        0x4 C:\Users\alien\AppData\Local\Temp\ccodVkrc.ltrans1.ltrans.o
 .text.BufferFrame_getMsgSize
                0x08046d2a        0x4 C:\Users\alien\AppData\Local\Temp\ccodVkrc.ltrans1.ltrans.o
 .text.BufferFrame_appendBytes
                0x08046d2e       0x24 C:\Users\alien\AppData\Local\Temp\ccodVkrc.ltrans1.ltrans.o
 .text.BufferFrame_setNextByte
                0x08046d52        0xe C:\Users\alien\AppData\Local\Temp\ccodVkrc.ltrans1.ltrans.o
 .text.BufferFrame_resetFrame
                0x08046d60        0x6 C:\Users\alien\AppData\Local\Temp\ccodVkrc.ltrans1.ltrans.o
 *fill*         0x08046d66        0x2 
 .text.IsCommandExecutable
                0x08046d68       0x6c C:\Users\alien\AppData\Local\Temp\ccodVkrc.ltrans1.ltrans.o
 .text.pvScanInternalDiscrete
                0x08046dd4      0x190 C:\Users\alien\AppData\Local\Temp\ccodVkrc.ltrans1.ltrans.o
 .text.SingleCommand_destroy
                0x08046f64        0x4 C:\Users\alien\AppData\Local\Temp\ccodVkrc.ltrans1.ltrans.o
                0x08046f64                SingleCommand_destroy
 .text.EndOfInitialization_destroy
                0x08046f68        0x4 C:\Users\alien\AppData\Local\Temp\ccodVkrc.ltrans1.ltrans.o
                0x08046f68                EndOfInitialization_destroy
 .text.ParameterActivation_destroy
                0x08046f6c        0x4 C:\Users\alien\AppData\Local\Temp\ccodVkrc.ltrans1.ltrans.o
                0x08046f6c                ParameterActivation_destroy
 .text.DelayAcquisitionCommand_destroy
                0x08046f70        0x4 C:\Users\alien\AppData\Local\Temp\ccodVkrc.ltrans1.ltrans.o
                0x08046f70                DelayAcquisitionCommand_destroy
 .text.ResetProcessCommand_destroy
                0x08046f74        0x4 C:\Users\alien\AppData\Local\Temp\ccodVkrc.ltrans1.ltrans.o
                0x08046f74                ResetProcessCommand_destroy
 .text.CounterInterrogationCommand_destroy
                0x08046f78        0x4 C:\Users\alien\AppData\Local\Temp\ccodVkrc.ltrans1.ltrans.o
                0x08046f78                CounterInterrogationCommand_destroy
 .text.InterrogationCommand_destroy
                0x08046f7c        0x4 C:\Users\alien\AppData\Local\Temp\ccodVkrc.ltrans1.ltrans.o
                0x08046f7c                InterrogationCommand_destroy
 .text.ClockSynchronizationCommand_destroy
                0x08046f80        0x4 C:\Users\alien\AppData\Local\Temp\ccodVkrc.ltrans1.ltrans.o
                0x08046f80                ClockSynchronizationCommand_destroy
 .text.ReadCommand_destroy
                0x08046f84        0x4 C:\Users\alien\AppData\Local\Temp\ccodVkrc.ltrans1.ltrans.o
                0x08046f84                ReadCommand_destroy
 .text.Bitstring32CommandWithCP56Time2a_destroy
                0x08046f88        0x4 C:\Users\alien\AppData\Local\Temp\ccodVkrc.ltrans1.ltrans.o
                0x08046f88                Bitstring32CommandWithCP56Time2a_destroy
 .text.Bitstring32Command_destroy
                0x08046f8c        0x4 C:\Users\alien\AppData\Local\Temp\ccodVkrc.ltrans1.ltrans.o
                0x08046f8c                Bitstring32Command_destroy
 .text.MeasuredValueShortWithCP56Time2a_destroy
                0x08046f90        0x4 C:\Users\alien\AppData\Local\Temp\ccodVkrc.ltrans1.ltrans.o
                0x08046f90                MeasuredValueShortWithCP56Time2a_destroy
 .text.SetpointCommandShortWithCP56Time2a_destroy
                0x08046f94        0x4 C:\Users\alien\AppData\Local\Temp\ccodVkrc.ltrans1.ltrans.o
                0x08046f94                SetpointCommandShortWithCP56Time2a_destroy
 .text.MeasuredValueShort_destroy
                0x08046f98        0x4 C:\Users\alien\AppData\Local\Temp\ccodVkrc.ltrans1.ltrans.o
                0x08046f98                MeasuredValueShort_destroy
 .text.SetpointCommandShort_destroy
                0x08046f9c        0x4 C:\Users\alien\AppData\Local\Temp\ccodVkrc.ltrans1.ltrans.o
                0x08046f9c                SetpointCommandShort_destroy
 .text.MeasuredValueNormalizedWithCP56Time2a_destroy
                0x08046fa0        0x4 C:\Users\alien\AppData\Local\Temp\ccodVkrc.ltrans1.ltrans.o
                0x08046fa0                MeasuredValueNormalizedWithCP56Time2a_destroy
 .text.SetpointCommandScaledWithCP56Time2a_destroy
                0x08046fa4        0x4 C:\Users\alien\AppData\Local\Temp\ccodVkrc.ltrans1.ltrans.o
                0x08046fa4                SetpointCommandScaledWithCP56Time2a_destroy
 .text.MeasuredValueNormalized_destroy
                0x08046fa8        0x4 C:\Users\alien\AppData\Local\Temp\ccodVkrc.ltrans1.ltrans.o
                0x08046fa8                MeasuredValueNormalized_destroy
 .text.SetpointCommandScaled_destroy
                0x08046fac        0x4 C:\Users\alien\AppData\Local\Temp\ccodVkrc.ltrans1.ltrans.o
                0x08046fac                SetpointCommandScaled_destroy
 .text.SetpointCommandNormalizedWithCP56Time2a_destroy
                0x08046fb0        0x4 C:\Users\alien\AppData\Local\Temp\ccodVkrc.ltrans1.ltrans.o
                0x08046fb0                SetpointCommandNormalizedWithCP56Time2a_destroy
 .text.SetpointCommandNormalized_destroy
                0x08046fb4        0x4 C:\Users\alien\AppData\Local\Temp\ccodVkrc.ltrans1.ltrans.o
                0x08046fb4                SetpointCommandNormalized_destroy
 .text.StepCommandWithCP56Time2a_destroy
                0x08046fb8        0x4 C:\Users\alien\AppData\Local\Temp\ccodVkrc.ltrans1.ltrans.o
                0x08046fb8                StepCommandWithCP56Time2a_destroy
 .text.StepCommand_destroy
                0x08046fbc        0x4 C:\Users\alien\AppData\Local\Temp\ccodVkrc.ltrans1.ltrans.o
                0x08046fbc                StepCommand_destroy
 .text.SingleCommandWithCP56Time2a_destroy
                0x08046fc0        0x4 C:\Users\alien\AppData\Local\Temp\ccodVkrc.ltrans1.ltrans.o
                0x08046fc0                SingleCommandWithCP56Time2a_destroy
 .text.DoubleCommandWithCP56Time2a_destroy
                0x08046fc4        0x4 C:\Users\alien\AppData\Local\Temp\ccodVkrc.ltrans1.ltrans.o
                0x08046fc4                DoubleCommandWithCP56Time2a_destroy
 .text.DoubleCommand_destroy
                0x08046fc8        0x4 C:\Users\alien\AppData\Local\Temp\ccodVkrc.ltrans1.ltrans.o
                0x08046fc8                DoubleCommand_destroy
 .text.PackedSinglePointWithSCD_destroy
                0x08046fcc        0x4 C:\Users\alien\AppData\Local\Temp\ccodVkrc.ltrans1.ltrans.o
                0x08046fcc                PackedSinglePointWithSCD_destroy
 .text.PackedStartEventsOfProtectionEquipmentWithCP56Time2a_destroy
                0x08046fd0        0x4 C:\Users\alien\AppData\Local\Temp\ccodVkrc.ltrans1.ltrans.o
                0x08046fd0                PackedStartEventsOfProtectionEquipmentWithCP56Time2a_destroy
 .text.PackedOutputCircuitInfoWithCP56Time2a_destroy
                0x08046fd4        0x4 C:\Users\alien\AppData\Local\Temp\ccodVkrc.ltrans1.ltrans.o
                0x08046fd4                PackedOutputCircuitInfoWithCP56Time2a_destroy
 .text.PackedStartEventsOfProtectionEquipment_destroy
                0x08046fd8        0x4 C:\Users\alien\AppData\Local\Temp\ccodVkrc.ltrans1.ltrans.o
                0x08046fd8                PackedStartEventsOfProtectionEquipment_destroy
 .text.PackedOutputCircuitInfo_destroy
                0x08046fdc        0x4 C:\Users\alien\AppData\Local\Temp\ccodVkrc.ltrans1.ltrans.o
                0x08046fdc                PackedOutputCircuitInfo_destroy
 .text.EventOfProtectionEquipmentWithCP56Time2a_destroy
                0x08046fe0        0x4 C:\Users\alien\AppData\Local\Temp\ccodVkrc.ltrans1.ltrans.o
                0x08046fe0                EventOfProtectionEquipmentWithCP56Time2a_destroy
 .text.EventOfProtectionEquipment_destroy
                0x08046fe4        0x4 C:\Users\alien\AppData\Local\Temp\ccodVkrc.ltrans1.ltrans.o
                0x08046fe4                EventOfProtectionEquipment_destroy
 .text.IntegratedTotalsWithCP56Time2a_destroy
                0x08046fe8        0x4 C:\Users\alien\AppData\Local\Temp\ccodVkrc.ltrans1.ltrans.o
                0x08046fe8                IntegratedTotalsWithCP56Time2a_destroy
 .text.IntegratedTotalsWithCP24Time2a_destroy
                0x08046fec        0x4 C:\Users\alien\AppData\Local\Temp\ccodVkrc.ltrans1.ltrans.o
                0x08046fec                IntegratedTotalsWithCP24Time2a_destroy
 .text.IntegratedTotals_destroy
                0x08046ff0        0x4 C:\Users\alien\AppData\Local\Temp\ccodVkrc.ltrans1.ltrans.o
                0x08046ff0                IntegratedTotals_destroy
 .text.MeasuredValueShortWithCP24Time2a_destroy
                0x08046ff4        0x4 C:\Users\alien\AppData\Local\Temp\ccodVkrc.ltrans1.ltrans.o
                0x08046ff4                MeasuredValueShortWithCP24Time2a_destroy
 .text.MeasuredValueScaledWithCP56Time2a_destroy
                0x08046ff8        0x4 C:\Users\alien\AppData\Local\Temp\ccodVkrc.ltrans1.ltrans.o
                0x08046ff8                MeasuredValueScaledWithCP56Time2a_destroy
 .text.MeasuredValueScaled_destroy
                0x08046ffc        0x4 C:\Users\alien\AppData\Local\Temp\ccodVkrc.ltrans1.ltrans.o
                0x08046ffc                MeasuredValueScaled_destroy
 .text.MeasuredValueNormalizedWithCP24Time2a_destroy
                0x08047000        0x4 C:\Users\alien\AppData\Local\Temp\ccodVkrc.ltrans1.ltrans.o
                0x08047000                MeasuredValueNormalizedWithCP24Time2a_destroy
 .text.MeasuredValueNormalizedWithoutQuality_destroy
                0x08047004        0x4 C:\Users\alien\AppData\Local\Temp\ccodVkrc.ltrans1.ltrans.o
                0x08047004                MeasuredValueNormalizedWithoutQuality_destroy
 .text.Bitstring32WithCP56Time2a_destroy
                0x08047008        0x4 C:\Users\alien\AppData\Local\Temp\ccodVkrc.ltrans1.ltrans.o
                0x08047008                Bitstring32WithCP56Time2a_destroy
 .text.Bitstring32WithCP24Time2a_destroy
                0x0804700c        0x4 C:\Users\alien\AppData\Local\Temp\ccodVkrc.ltrans1.ltrans.o
                0x0804700c                Bitstring32WithCP24Time2a_destroy
 .text.BitString32_destroy
                0x08047010        0x4 C:\Users\alien\AppData\Local\Temp\ccodVkrc.ltrans1.ltrans.o
                0x08047010                BitString32_destroy
 .text.SinglePointWithCP56Time2a_destroy
                0x08047014        0x4 C:\Users\alien\AppData\Local\Temp\ccodVkrc.ltrans1.ltrans.o
                0x08047014                SinglePointWithCP56Time2a_destroy
 .text.SinglePointWithCP24Time2a_destroy
                0x08047018        0x4 C:\Users\alien\AppData\Local\Temp\ccodVkrc.ltrans1.ltrans.o
                0x08047018                SinglePointWithCP24Time2a_destroy
 .text.StepPositionWithCP56Time2a_destroy
                0x0804701c        0x4 C:\Users\alien\AppData\Local\Temp\ccodVkrc.ltrans1.ltrans.o
                0x0804701c                StepPositionWithCP56Time2a_destroy
 .text.DoublePointWithCP56Time2a_destroy
                0x08047020        0x4 C:\Users\alien\AppData\Local\Temp\ccodVkrc.ltrans1.ltrans.o
                0x08047020                DoublePointWithCP56Time2a_destroy
 .text.StepPositionWithCP24Time2a_destroy
                0x08047024        0x4 C:\Users\alien\AppData\Local\Temp\ccodVkrc.ltrans1.ltrans.o
                0x08047024                StepPositionWithCP24Time2a_destroy
 .text.DoublePointWithCP24Time2a_destroy
                0x08047028        0x4 C:\Users\alien\AppData\Local\Temp\ccodVkrc.ltrans1.ltrans.o
                0x08047028                DoublePointWithCP24Time2a_destroy
 .text.StepPositionInformation_destroy
                0x0804702c        0x4 C:\Users\alien\AppData\Local\Temp\ccodVkrc.ltrans1.ltrans.o
                0x0804702c                StepPositionInformation_destroy
 .text.DoublePointInformation_destroy
                0x08047030        0x4 C:\Users\alien\AppData\Local\Temp\ccodVkrc.ltrans1.ltrans.o
                0x08047030                DoublePointInformation_destroy
 .text.SinglePointInformation_destroy
                0x08047034        0x4 C:\Users\alien\AppData\Local\Temp\ccodVkrc.ltrans1.ltrans.o
                0x08047034                SinglePointInformation_destroy
 .text.ExecuteOutput
                0x08047038       0xe8 C:\Users\alien\AppData\Local\Temp\ccodVkrc.ltrans1.ltrans.o
 .text.processDoubleCommand
                0x08047120       0xec C:\Users\alien\AppData\Local\Temp\ccodVkrc.ltrans1.ltrans.o
 .text.processSingleCommand
                0x0804720c       0xd4 C:\Users\alien\AppData\Local\Temp\ccodVkrc.ltrans1.ltrans.o
 .text.pvScanLogicalDiscrete
                0x080472e0      0x148 C:\Users\alien\AppData\Local\Temp\ccodVkrc.ltrans1.ltrans.o
 .text.vTaskIOScan
                0x08047428       0x50 C:\Users\alien\AppData\Local\Temp\ccodVkrc.ltrans1.ltrans.o
                0x08047428                vTaskIOScan
 .text.StartDefaultTask
                0x08047478       0x68 C:\Users\alien\AppData\Local\Temp\ccodVkrc.ltrans1.ltrans.o
                0x08047478                StartDefaultTask
 .text.Semaphore_wait
                0x080474e0        0x8 C:\Users\alien\AppData\Local\Temp\ccodVkrc.ltrans1.ltrans.o
 .text.low_level_output.lto_priv.354
                0x080474e8      0x180 C:\Users\alien\AppData\Local\Temp\ccodVkrc.ltrans1.ltrans.o
                0x080474e8                low_level_output.lto_priv.354
 .text.prvvParseDataFrame
                0x08047668       0x7c C:\Users\alien\AppData\Local\Temp\ccodVkrc.ltrans1.ltrans.o
 .text.ethernetif_input
                0x080476e4      0x190 C:\Users\alien\AppData\Local\Temp\ccodVkrc.ltrans1.ltrans.o
                0x080476e4                ethernetif_input
 .text.vTaskDTU_TCP_RX.lto_priv.352
                0x08047874      0x148 C:\Users\alien\AppData\Local\Temp\ccodVkrc.ltrans1.ltrans.o
                0x08047874                vTaskDTU_TCP_RX.lto_priv.352
 .text.vTaskDTU_COM_RX.lto_priv.353
                0x080479bc       0x88 C:\Users\alien\AppData\Local\Temp\ccodVkrc.ltrans1.ltrans.o
                0x080479bc                vTaskDTU_COM_RX.lto_priv.353
 .text.vTaskCanNetworkTx.lto_priv.362
                0x08047a44      0x224 C:\Users\alien\AppData\Local\Temp\ccodVkrc.ltrans1.ltrans.o
                0x08047a44                vTaskCanNetworkTx.lto_priv.362
 .text.vTaskCanNetworkRx.lto_priv.361
                0x08047c68      0x3c8 C:\Users\alien\AppData\Local\Temp\ccodVkrc.ltrans1.ltrans.o
                0x08047c68                vTaskCanNetworkRx.lto_priv.361
 .text.Socket_destroy
                0x08048030       0x64 C:\Users\alien\AppData\Local\Temp\ccodVkrc.ltrans1.ltrans.o
 .text.Socket_write
                0x08048094        0xc C:\Users\alien\AppData\Local\Temp\ccodVkrc.ltrans1.ltrans.o
 .text.sendSMessage
                0x080480a0       0x3c C:\Users\alien\AppData\Local\Temp\ccodVkrc.ltrans1.ltrans.o
 .text.sendASDU
                0x080480dc       0xd4 C:\Users\alien\AppData\Local\Temp\ccodVkrc.ltrans1.ltrans.o
 .text.Socket_read
                0x080481b0       0x38 C:\Users\alien\AppData\Local\Temp\ccodVkrc.ltrans1.ltrans.o
 .text.Thread_start
                0x080481e8       0x44 C:\Users\alien\AppData\Local\Temp\ccodVkrc.ltrans1.ltrans.o
 .text.destroyAutomaticThread
                0x0804822c       0xe4 C:\Users\alien\AppData\Local\Temp\ccodVkrc.ltrans1.ltrans.o
 .text.FLASH_If_Write
                0x08048310       0xc4 C:\Users\alien\AppData\Local\Temp\ccodVkrc.ltrans1.ltrans.o
                0x08048310                FLASH_If_Write
 .text.FLASH_If_Erase
                0x080483d4      0x164 C:\Users\alien\AppData\Local\Temp\ccodVkrc.ltrans1.ltrans.o
                0x080483d4                FLASH_If_Erase
 .text.sys_env_save
                0x08048538       0x48 C:\Users\alien\AppData\Local\Temp\ccodVkrc.ltrans1.ltrans.o
                0x08048538                sys_env_save
 .text.noMemoryAvailableHandler.lto_priv.303
                0x08048580        0x2 C:\Users\alien\AppData\Local\Temp\ccodVkrc.ltrans1.ltrans.o
                0x08048580                noMemoryAvailableHandler.lto_priv.303
 .text.Memory_malloc
                0x08048582        0x4 C:\Users\alien\AppData\Local\Temp\ccodVkrc.ltrans1.ltrans.o
                0x08048582                Memory_malloc
 .text.InformationObject_ParseObjectAddress
                0x08048586       0x1e C:\Users\alien\AppData\Local\Temp\ccodVkrc.ltrans1.ltrans.o
                0x08048586                InformationObject_ParseObjectAddress
 .text.InformationObject_getFromBuffer.isra.56.lto_priv.302
                0x080485a4       0x12 C:\Users\alien\AppData\Local\Temp\ccodVkrc.ltrans1.ltrans.o
                0x080485a4                InformationObject_getFromBuffer.isra.56.lto_priv.302
 .text.CP56Time2a_getFromBuffer
                0x080485b6       0x22 C:\Users\alien\AppData\Local\Temp\ccodVkrc.ltrans1.ltrans.o
                0x080485b6                CP56Time2a_getFromBuffer
 .text.CP56Time2a_toMsTimestamp
                0x080485d8       0xe6 C:\Users\alien\AppData\Local\Temp\ccodVkrc.ltrans1.ltrans.o
                0x080485d8                CP56Time2a_toMsTimestamp
 .text.CP24Time2a_getFromBuffer
                0x080486be       0x1e C:\Users\alien\AppData\Local\Temp\ccodVkrc.ltrans1.ltrans.o
                0x080486be                CP24Time2a_getFromBuffer
 .text.CP16Time2a_getFromBuffer
                0x080486dc       0x18 C:\Users\alien\AppData\Local\Temp\ccodVkrc.ltrans1.ltrans.o
                0x080486dc                CP16Time2a_getFromBuffer
 .text.ASDU_isSequence
                0x080486f4        0x8 C:\Users\alien\AppData\Local\Temp\ccodVkrc.ltrans1.ltrans.o
                0x080486f4                ASDU_isSequence
 .text.ASDU_addInformationObject
                0x080486fc       0x3c C:\Users\alien\AppData\Local\Temp\ccodVkrc.ltrans1.ltrans.o
 .text.TcpServerSocket_create
                0x08048738      0x1d8 C:\Users\alien\AppData\Local\Temp\ccodVkrc.ltrans1.ltrans.o
 .text.serverThread
                0x08048910      0x268 C:\Users\alien\AppData\Local\Temp\ccodVkrc.ltrans1.ltrans.o
 .text.sendASDUInternal.part.5
                0x08048b78       0x48 C:\Users\alien\AppData\Local\Temp\ccodVkrc.ltrans1.ltrans.o
 .text.checkSequenceNumber
                0x08048bc0      0x198 C:\Users\alien\AppData\Local\Temp\ccodVkrc.ltrans1.ltrans.o
 .text.sendASDUInternal
                0x08048d58       0xbc C:\Users\alien\AppData\Local\Temp\ccodVkrc.ltrans1.ltrans.o
 .text.MasterConnection_sendASDU
                0x08048e14       0x18 C:\Users\alien\AppData\Local\Temp\ccodVkrc.ltrans1.ltrans.o
 .text.asduHandler
                0x08048e2c      0x184 C:\Users\alien\AppData\Local\Temp\ccodVkrc.ltrans1.ltrans.o
 .text.interrogationHandler
                0x08048fb0      0x2bc C:\Users\alien\AppData\Local\Temp\ccodVkrc.ltrans1.ltrans.o
 .text.clockSyncHandler
                0x0804926c       0xc0 C:\Users\alien\AppData\Local\Temp\ccodVkrc.ltrans1.ltrans.o
 .text.responseCOTUnknown
                0x0804932c       0x16 C:\Users\alien\AppData\Local\Temp\ccodVkrc.ltrans1.ltrans.o
 *fill*         0x08049342        0x2 
 .text.connectionHandlingThread
                0x08049344      0x7c4 C:\Users\alien\AppData\Local\Temp\ccodVkrc.ltrans1.ltrans.o
 .text.Slave_enqueueASDU
                0x08049b08       0x98 C:\Users\alien\AppData\Local\Temp\ccodVkrc.ltrans1.ltrans.o
 .text.vTaskIEC104.lto_priv.360
                0x08049ba0      0x5dc C:\Users\alien\AppData\Local\Temp\ccodVkrc.ltrans1.ltrans.o
                0x08049ba0                vTaskIEC104.lto_priv.360
 .text.lwip_strnicmp.constprop.17
                0x0804a17c       0x38 C:\Users\alien\AppData\Local\Temp\ccodVkrc.ltrans2.ltrans.o
 .text.UART_DMAError.lto_priv.243
                0x0804a1b4       0x56 C:\Users\alien\AppData\Local\Temp\ccodVkrc.ltrans2.ltrans.o
                0x0804a1b4                UART_DMAError.lto_priv.243
 .text.UART_DMARxHalfCplt.lto_priv.242
                0x0804a20a        0x2 C:\Users\alien\AppData\Local\Temp\ccodVkrc.ltrans2.ltrans.o
                0x0804a20a                UART_DMARxHalfCplt.lto_priv.242
 .text.UART_DMAReceiveCplt.lto_priv.241
                0x0804a20c       0x7c C:\Users\alien\AppData\Local\Temp\ccodVkrc.ltrans2.ltrans.o
                0x0804a20c                UART_DMAReceiveCplt.lto_priv.241
 .text.RTC_Bcd2ToByte
                0x0804a288       0x12 C:\Users\alien\AppData\Local\Temp\ccodVkrc.ltrans2.ltrans.o
 .text.RTC_ByteToBcd2
                0x0804a29a       0x16 C:\Users\alien\AppData\Local\Temp\ccodVkrc.ltrans2.ltrans.o
 .text.eMBFuncReadDiscreteInputs
                0x0804a2b0       0xac C:\Users\alien\AppData\Local\Temp\ccodVkrc.ltrans2.ltrans.o
                0x0804a2b0                eMBFuncReadDiscreteInputs
 .text.usMBCRC16
                0x0804a35c       0x2c C:\Users\alien\AppData\Local\Temp\ccodVkrc.ltrans2.ltrans.o
 .text.prvTaskExitError.lto_priv.366
                0x0804a388       0x30 C:\Users\alien\AppData\Local\Temp\ccodVkrc.ltrans2.ltrans.o
                0x0804a388                prvTaskExitError.lto_priv.366
 .text.vListInsert
                0x0804a3b8       0x2e C:\Users\alien\AppData\Local\Temp\ccodVkrc.ltrans2.ltrans.o
 *fill*         0x0804a3e6        0x2 
 .text.vPortValidateInterruptPriority
                0x0804a3e8       0x5c C:\Users\alien\AppData\Local\Temp\ccodVkrc.ltrans2.ltrans.o
 .text.unlikely.prvInsertBlockIntoFreeList
                0x0804a444       0x48 C:\Users\alien\AppData\Local\Temp\ccodVkrc.ltrans2.ltrans.o
 .text.setup_tcp
                0x0804a48c       0x34 C:\Users\alien\AppData\Local\Temp\ccodVkrc.ltrans2.ltrans.o
 .text.udp_bind
                0x0804a4c0       0xa8 C:\Users\alien\AppData\Local\Temp\ccodVkrc.ltrans2.ltrans.o
 .text.HAL_TIM_Base_Stop_IT
                0x0804a568       0xb0 C:\Users\alien\AppData\Local\Temp\ccodVkrc.ltrans2.ltrans.o
 .text.vMBMasterPortTimersDisable
                0x0804a618       0x1c C:\Users\alien\AppData\Local\Temp\ccodVkrc.ltrans2.ltrans.o
 .text.xMBUtilSetBits
                0x0804a634       0x2a C:\Users\alien\AppData\Local\Temp\ccodVkrc.ltrans2.ltrans.o
 *fill*         0x0804a65e        0x2 
 .text.eMBMasterRegCoilsCB.constprop.3
                0x0804a660       0x74 C:\Users\alien\AppData\Local\Temp\ccodVkrc.ltrans2.ltrans.o
 .text.eMBMasterFuncWriteMultipleCoils
                0x0804a6d4       0x60 C:\Users\alien\AppData\Local\Temp\ccodVkrc.ltrans2.ltrans.o
                0x0804a6d4                eMBMasterFuncWriteMultipleCoils
 .text.eMBMasterFuncWriteCoil
                0x0804a734       0x50 C:\Users\alien\AppData\Local\Temp\ccodVkrc.ltrans2.ltrans.o
                0x0804a734                eMBMasterFuncWriteCoil
 .text.eMBMasterFuncReadCoils
                0x0804a784       0x68 C:\Users\alien\AppData\Local\Temp\ccodVkrc.ltrans2.ltrans.o
                0x0804a784                eMBMasterFuncReadCoils
 .text.eMBMasterFuncReadDiscreteInputs
                0x0804a7ec       0xb4 C:\Users\alien\AppData\Local\Temp\ccodVkrc.ltrans2.ltrans.o
                0x0804a7ec                eMBMasterFuncReadDiscreteInputs
 .text.eMBRegCoilsCB
                0x0804a8a0       0xa8 C:\Users\alien\AppData\Local\Temp\ccodVkrc.ltrans2.ltrans.o
 .text.eMBFuncWriteMultipleCoils
                0x0804a948       0x60 C:\Users\alien\AppData\Local\Temp\ccodVkrc.ltrans2.ltrans.o
                0x0804a948                eMBFuncWriteMultipleCoils
 .text.eMBFuncWriteCoil
                0x0804a9a8       0x50 C:\Users\alien\AppData\Local\Temp\ccodVkrc.ltrans2.ltrans.o
                0x0804a9a8                eMBFuncWriteCoil
 .text.eMBFuncReadCoils
                0x0804a9f8       0x74 C:\Users\alien\AppData\Local\Temp\ccodVkrc.ltrans2.ltrans.o
                0x0804a9f8                eMBFuncReadCoils
 .text.vMBPortSerialEnable
                0x0804aa6c       0x70 C:\Users\alien\AppData\Local\Temp\ccodVkrc.ltrans2.ltrans.o
 .text.vMBMasterPortSerialEnable
                0x0804aadc       0x40 C:\Users\alien\AppData\Local\Temp\ccodVkrc.ltrans2.ltrans.o
 .text.eMBFuncReportSlaveID
                0x0804ab1c       0x1c C:\Users\alien\AppData\Local\Temp\ccodVkrc.ltrans2.ltrans.o
                0x0804ab1c                eMBFuncReportSlaveID
 .text.tcp_netif_ip_addr_changed_pcblist.constprop.56
                0x0804ab38       0x20 C:\Users\alien\AppData\Local\Temp\ccodVkrc.ltrans2.ltrans.o
 .text.udp_new  0x0804ab58       0x1c C:\Users\alien\AppData\Local\Temp\ccodVkrc.ltrans2.ltrans.o
 .text.tcpip_inpkt
                0x0804ab74       0x38 C:\Users\alien\AppData\Local\Temp\ccodVkrc.ltrans2.ltrans.o
 .text.tcpip_input
                0x0804abac       0x1c C:\Users\alien\AppData\Local\Temp\ccodVkrc.ltrans2.ltrans.o
                0x0804abac                tcpip_input
 .text.lwip_netconn_do_getaddr
                0x0804abc8       0x70 C:\Users\alien\AppData\Local\Temp\ccodVkrc.ltrans2.ltrans.o
 .text.lwip_netconn_do_newconn.part.1
                0x0804ac38       0x1e C:\Users\alien\AppData\Local\Temp\ccodVkrc.ltrans2.ltrans.o
 .text.lwip_netconn_do_disconnect
                0x0804ac56       0x28 C:\Users\alien\AppData\Local\Temp\ccodVkrc.ltrans2.ltrans.o
                0x0804ac56                lwip_netconn_do_disconnect
 .text.lwip_netconn_do_recv
                0x0804ac7e       0x44 C:\Users\alien\AppData\Local\Temp\ccodVkrc.ltrans2.ltrans.o
 .text.recv_tcp
                0x0804acc2       0x6e C:\Users\alien\AppData\Local\Temp\ccodVkrc.ltrans2.ltrans.o
 .text.netconn_alloc
                0x0804ad30       0x68 C:\Users\alien\AppData\Local\Temp\ccodVkrc.ltrans2.ltrans.o
 .text.lwip_netconn_do_newconn
                0x0804ad98       0x70 C:\Users\alien\AppData\Local\Temp\ccodVkrc.ltrans2.ltrans.o
 .text.HAL_RTC_SetTime.constprop.72
                0x0804ae08      0x1bc C:\Users\alien\AppData\Local\Temp\ccodVkrc.ltrans2.ltrans.o
                0x0804ae08                HAL_RTC_SetTime.constprop.72
 .text.HAL_RTC_SetDate.constprop.71
                0x0804afc4      0x144 C:\Users\alien\AppData\Local\Temp\ccodVkrc.ltrans2.ltrans.o
                0x0804afc4                HAL_RTC_SetDate.constprop.71
 .text.HAL_RTC_GetTime.constprop.70
                0x0804b108       0x4c C:\Users\alien\AppData\Local\Temp\ccodVkrc.ltrans2.ltrans.o
                0x0804b108                HAL_RTC_GetTime.constprop.70
 .text.HAL_RTC_GetDate.constprop.69
                0x0804b154       0x3c C:\Users\alien\AppData\Local\Temp\ccodVkrc.ltrans2.ltrans.o
                0x0804b154                HAL_RTC_GetDate.constprop.69
 .text.etharp_raw.constprop.66
                0x0804b190       0x90 C:\Users\alien\AppData\Local\Temp\ccodVkrc.ltrans2.ltrans.o
                0x0804b190                etharp_raw.constprop.66
 .text.tcp_output_alloc_header.constprop.57
                0x0804b220       0x5c C:\Users\alien\AppData\Local\Temp\ccodVkrc.ltrans2.ltrans.o
                0x0804b220                tcp_output_alloc_header.constprop.57
 .text.netif_set_ipaddr.constprop.54
                0x0804b27c       0x94 C:\Users\alien\AppData\Local\Temp\ccodVkrc.ltrans2.ltrans.o
                0x0804b27c                netif_set_ipaddr.constprop.54
 .text.HAL_NVIC_SetPriorityGrouping.constprop.33
                0x0804b310       0x1c C:\Users\alien\AppData\Local\Temp\ccodVkrc.ltrans2.ltrans.o
                0x0804b310                HAL_NVIC_SetPriorityGrouping.constprop.33
 .text.tcp_seg_copy.constprop.20
                0x0804b32c       0x24 C:\Users\alien\AppData\Local\Temp\ccodVkrc.ltrans2.ltrans.o
                0x0804b32c                tcp_seg_copy.constprop.20
 .text.HAL_TIM_Base_Start_IT
                0x0804b350       0x9c C:\Users\alien\AppData\Local\Temp\ccodVkrc.ltrans2.ltrans.o
                0x0804b350                HAL_TIM_Base_Start_IT
 .text.vMBMasterPortTimersT35Enable
                0x0804b3ec       0x24 C:\Users\alien\AppData\Local\Temp\ccodVkrc.ltrans2.ltrans.o
 .text.xMBMasterRTUReceiveFSM
                0x0804b410      0x138 C:\Users\alien\AppData\Local\Temp\ccodVkrc.ltrans2.ltrans.o
                0x0804b410                xMBMasterRTUReceiveFSM
 .text.vMBPortTimersEnable
                0x0804b548       0x18 C:\Users\alien\AppData\Local\Temp\ccodVkrc.ltrans2.ltrans.o
 .text.xMBRTUReceiveFSM
                0x0804b560       0xb8 C:\Users\alien\AppData\Local\Temp\ccodVkrc.ltrans2.ltrans.o
                0x0804b560                xMBRTUReceiveFSM
 .text.HAL_RCC_GetPCLK2Freq
                0x0804b618       0x20 C:\Users\alien\AppData\Local\Temp\ccodVkrc.ltrans2.ltrans.o
                0x0804b618                HAL_RCC_GetPCLK2Freq
 .text.HAL_InitTick.constprop.44
                0x0804b638       0x88 C:\Users\alien\AppData\Local\Temp\ccodVkrc.ltrans2.ltrans.o
                0x0804b638                HAL_InitTick.constprop.44
 .text.HAL_RCC_GetPCLK1Freq
                0x0804b6c0       0x20 C:\Users\alien\AppData\Local\Temp\ccodVkrc.ltrans2.ltrans.o
                0x0804b6c0                HAL_RCC_GetPCLK1Freq
 .text.HAL_GPIO_Init
                0x0804b6e0      0x28c C:\Users\alien\AppData\Local\Temp\ccodVkrc.ltrans2.ltrans.o
                0x0804b6e0                HAL_GPIO_Init
 .text.HAL_FLASH_Unlock
                0x0804b96c       0x24 C:\Users\alien\AppData\Local\Temp\ccodVkrc.ltrans2.ltrans.o
                0x0804b96c                HAL_FLASH_Unlock
 .text.NVIC_SystemReset.lto_priv.364
                0x0804b990       0x24 C:\Users\alien\AppData\Local\Temp\ccodVkrc.ltrans2.ltrans.o
                0x0804b990                NVIC_SystemReset.lto_priv.364
 .text.HAL_Delay
                0x0804b9b4       0x20 C:\Users\alien\AppData\Local\Temp\ccodVkrc.ltrans2.ltrans.o
                0x0804b9b4                HAL_Delay
 .text.vPortFree.part.0
                0x0804b9d4       0x12 C:\Users\alien\AppData\Local\Temp\ccodVkrc.ltrans2.ltrans.o
                0x0804b9d4                vTaskSetTimeOutState.part.11
                0x0804b9d4                vPortFree.part.0
                0x0804b9d4                uxQueueMessagesWaitingFromISR.part.4
 *fill*         0x0804b9e6        0x2 
 .text.prvResetNextTaskUnblockTime.lto_priv.377
                0x0804b9e8       0x24 C:\Users\alien\AppData\Local\Temp\ccodVkrc.ltrans2.ltrans.o
                0x0804b9e8                prvResetNextTaskUnblockTime.lto_priv.377
 .text.vTaskSuspendAll
                0x0804ba0c       0x10 C:\Users\alien\AppData\Local\Temp\ccodVkrc.ltrans2.ltrans.o
                0x0804ba0c                vTaskSuspendAll
 .text.prvCopyDataFromQueue.lto_priv.299
                0x0804ba1c       0x2a C:\Users\alien\AppData\Local\Temp\ccodVkrc.ltrans2.ltrans.o
                0x0804ba1c                prvCopyDataFromQueue.lto_priv.299
 .text.prvInitialiseMutex.lto_priv.363
                0x0804ba46       0x12 C:\Users\alien\AppData\Local\Temp\ccodVkrc.ltrans2.ltrans.o
                0x0804ba46                prvInitialiseMutex.lto_priv.363
 .text.uxListRemove
                0x0804ba58       0x20 C:\Users\alien\AppData\Local\Temp\ccodVkrc.ltrans2.ltrans.o
                0x0804ba58                uxListRemove
 .text.vListInsertEnd
                0x0804ba78       0x18 C:\Users\alien\AppData\Local\Temp\ccodVkrc.ltrans2.ltrans.o
                0x0804ba78                vListInsertEnd
 .text.prvAddCurrentTaskToDelayedList.lto_priv.304
                0x0804ba90       0x8c C:\Users\alien\AppData\Local\Temp\ccodVkrc.ltrans2.ltrans.o
                0x0804ba90                prvAddCurrentTaskToDelayedList.lto_priv.304
 .text.vTaskPlaceOnEventList
                0x0804bb1c       0x20 C:\Users\alien\AppData\Local\Temp\ccodVkrc.ltrans2.ltrans.o
                0x0804bb1c                vTaskPlaceOnEventList
 .text.xTaskRemoveFromEventList
                0x0804bb3c       0x84 C:\Users\alien\AppData\Local\Temp\ccodVkrc.ltrans2.ltrans.o
                0x0804bb3c                xTaskRemoveFromEventList
 .text.xQueueReceiveFromISR
                0x0804bbc0       0x94 C:\Users\alien\AppData\Local\Temp\ccodVkrc.ltrans2.ltrans.o
                0x0804bbc0                xQueueReceiveFromISR
 .text.osMessageGet
                0x0804bc54       0x74 C:\Users\alien\AppData\Local\Temp\ccodVkrc.ltrans2.ltrans.o
                0x0804bc54                osMessageGet
 .text.osMessagePut
                0x0804bcc8       0xb0 C:\Users\alien\AppData\Local\Temp\ccodVkrc.ltrans2.ltrans.o
                0x0804bcc8                osMessagePut
 .text.xMBMasterPortEventPost
                0x0804bd78       0x1c C:\Users\alien\AppData\Local\Temp\ccodVkrc.ltrans2.ltrans.o
                0x0804bd78                xMBMasterPortEventPost
 .text.xMBPortEventPost
                0x0804bd94       0x2c C:\Users\alien\AppData\Local\Temp\ccodVkrc.ltrans2.ltrans.o
                0x0804bd94                xMBPortEventPost
 .text.osMutexRelease
                0x0804bdc0       0xd4 C:\Users\alien\AppData\Local\Temp\ccodVkrc.ltrans2.ltrans.o
                0x0804bdc0                osMutexRelease
                0x0804bdc0                osSemaphoreRelease
 .text.osSemaphoreWait
                0x0804be94       0x4c C:\Users\alien\AppData\Local\Temp\ccodVkrc.ltrans2.ltrans.o
                0x0804be94                osSemaphoreWait
 .text.osKernelSysTick
                0x0804bee0       0x18 C:\Users\alien\AppData\Local\Temp\ccodVkrc.ltrans2.ltrans.o
                0x0804bee0                osKernelSysTick
 .text.vPortEnableVFP.lto_priv.368
                0x0804bef8       0x14 C:\Users\alien\AppData\Local\Temp\ccodVkrc.ltrans2.ltrans.o
                0x0804bef8                vPortEnableVFP.lto_priv.368
 .text.vPortExitCritical
                0x0804bf0c       0x28 C:\Users\alien\AppData\Local\Temp\ccodVkrc.ltrans2.ltrans.o
                0x0804bf0c                vPortExitCritical
 .text.vPortEnterCritical
                0x0804bf34       0x38 C:\Users\alien\AppData\Local\Temp\ccodVkrc.ltrans2.ltrans.o
                0x0804bf34                vPortEnterCritical
 .text.eMBMasterRTUSend
                0x0804bf6c       0x84 C:\Users\alien\AppData\Local\Temp\ccodVkrc.ltrans2.ltrans.o
                0x0804bf6c                eMBMasterRTUSend
 .text.eMBMasterRTUReceive
                0x0804bff0       0x58 C:\Users\alien\AppData\Local\Temp\ccodVkrc.ltrans2.ltrans.o
                0x0804bff0                eMBMasterRTUReceive
 .text.eMBMasterRTUStart
                0x0804c048       0x24 C:\Users\alien\AppData\Local\Temp\ccodVkrc.ltrans2.ltrans.o
                0x0804c048                eMBMasterRTUStart
 .text.eMBRTUSend
                0x0804c06c       0xc4 C:\Users\alien\AppData\Local\Temp\ccodVkrc.ltrans2.ltrans.o
                0x0804c06c                eMBRTUSend
 .text.eMBRTUReceive
                0x0804c130       0x58 C:\Users\alien\AppData\Local\Temp\ccodVkrc.ltrans2.ltrans.o
                0x0804c130                eMBRTUReceive
 .text.eMBRTUStart
                0x0804c188       0x24 C:\Users\alien\AppData\Local\Temp\ccodVkrc.ltrans2.ltrans.o
                0x0804c188                eMBRTUStart
 .text.xTaskCheckForTimeOut.part.12
                0x0804c1ac       0x4c C:\Users\alien\AppData\Local\Temp\ccodVkrc.ltrans2.ltrans.o
                0x0804c1ac                xTaskCheckForTimeOut.part.12
 .text.xTaskResumeAll
                0x0804c1f8      0x1f4 C:\Users\alien\AppData\Local\Temp\ccodVkrc.ltrans2.ltrans.o
                0x0804c1f8                xTaskResumeAll
 .text.osDelay  0x0804c3ec       0x3c C:\Users\alien\AppData\Local\Temp\ccodVkrc.ltrans2.ltrans.o
                0x0804c3ec                osDelay
 .text.prvUnlockQueue.lto_priv.298
                0x0804c428       0x84 C:\Users\alien\AppData\Local\Temp\ccodVkrc.ltrans2.ltrans.o
                0x0804c428                prvUnlockQueue.lto_priv.298
 .text.uxQueueMessagesWaiting
                0x0804c4ac       0x22 C:\Users\alien\AppData\Local\Temp\ccodVkrc.ltrans2.ltrans.o
                0x0804c4ac                uxQueueMessagesWaiting
 *fill*         0x0804c4ce        0x2 
 .text.prvPortStartFirstTask.lto_priv.367
                0x0804c4d0       0x20 C:\Users\alien\AppData\Local\Temp\ccodVkrc.ltrans2.ltrans.o
                0x0804c4d0                prvPortStartFirstTask.lto_priv.367
 .text.vPortFree
                0x0804c4f0       0x5c C:\Users\alien\AppData\Local\Temp\ccodVkrc.ltrans2.ltrans.o
                0x0804c4f0                vPortFree
 .text.prvIdleTask.lto_priv.340
                0x0804c54c       0x74 C:\Users\alien\AppData\Local\Temp\ccodVkrc.ltrans2.ltrans.o
                0x0804c54c                prvIdleTask.lto_priv.340
 .text.osSemaphoreDelete
                0x0804c5c0       0x48 C:\Users\alien\AppData\Local\Temp\ccodVkrc.ltrans2.ltrans.o
                0x0804c5c0                osSemaphoreDelete
                0x0804c5c0                osMessageDelete
 .text.netconn_free
                0x0804c608       0x1a C:\Users\alien\AppData\Local\Temp\ccodVkrc.ltrans2.ltrans.o
 *fill*         0x0804c622        0x2 
 .text.accept_function
                0x0804c624       0xbc C:\Users\alien\AppData\Local\Temp\ccodVkrc.ltrans2.ltrans.o
 .text.pvPortMalloc
                0x0804c6e0      0x124 C:\Users\alien\AppData\Local\Temp\ccodVkrc.ltrans2.ltrans.o
                0x0804c6e0                pvPortMalloc
 .text.xTaskCreate
                0x0804c804      0x1f4 C:\Users\alien\AppData\Local\Temp\ccodVkrc.ltrans2.ltrans.o
                0x0804c804                xTaskCreate
 .text.osThreadCreate
                0x0804c9f8       0x30 C:\Users\alien\AppData\Local\Temp\ccodVkrc.ltrans2.ltrans.o
                0x0804c9f8                osThreadCreate
 .text.alloc_socket.lto_priv.365
                0x0804ca28       0x6c C:\Users\alien\AppData\Local\Temp\ccodVkrc.ltrans2.ltrans.o
                0x0804ca28                alloc_socket.lto_priv.365
 .text.get_socket.lto_priv.300
                0x0804ca94       0x28 C:\Users\alien\AppData\Local\Temp\ccodVkrc.ltrans2.ltrans.o
                0x0804ca94                get_socket.lto_priv.300
 .text.netbuf_delete
                0x0804cabc       0x22 C:\Users\alien\AppData\Local\Temp\ccodVkrc.ltrans2.ltrans.o
                0x0804cabc                netbuf_delete
 *fill*         0x0804cade        0x2 
 .text.netconn_drain
                0x0804cae0       0xa0 C:\Users\alien\AppData\Local\Temp\ccodVkrc.ltrans2.ltrans.o
 .text.recv_udp
                0x0804cb80       0x62 C:\Users\alien\AppData\Local\Temp\ccodVkrc.ltrans2.ltrans.o
 *fill*         0x0804cbe2        0x2 
 .text.err_to_errno
                0x0804cbe4       0x1c C:\Users\alien\AppData\Local\Temp\ccodVkrc.ltrans2.ltrans.o
                0x0804cbe4                err_to_errno
 .text.netconn_accept.part.1
                0x0804cc00       0x64 C:\Users\alien\AppData\Local\Temp\ccodVkrc.ltrans2.ltrans.o
                0x0804cc00                netconn_accept.part.1
 .text.udp_remove
                0x0804cc64       0x30 C:\Users\alien\AppData\Local\Temp\ccodVkrc.ltrans2.ltrans.o
                0x0804cc64                udp_remove
 .text.udp_sendto
                0x0804cc94       0xde C:\Users\alien\AppData\Local\Temp\ccodVkrc.ltrans2.ltrans.o
                0x0804cc94                udp_sendto
 .text.lwip_netconn_do_send
                0x0804cd72       0x60 C:\Users\alien\AppData\Local\Temp\ccodVkrc.ltrans2.ltrans.o
                0x0804cd72                lwip_netconn_do_send
 *fill*         0x0804cdd2        0x2 
 .text.sys_timeout
                0x0804cdd4       0x84 C:\Users\alien\AppData\Local\Temp\ccodVkrc.ltrans2.ltrans.o
                0x0804cdd4                sys_timeout
 .text.cyclic_timer.lto_priv.358
                0x0804ce58       0x1c C:\Users\alien\AppData\Local\Temp\ccodVkrc.ltrans2.ltrans.o
                0x0804ce58                cyclic_timer.lto_priv.358
 .text.tcpip_tcp_timer
                0x0804ce74       0x38 C:\Users\alien\AppData\Local\Temp\ccodVkrc.ltrans2.ltrans.o
 .text.tcp_timer_needed
                0x0804ceac       0x34 C:\Users\alien\AppData\Local\Temp\ccodVkrc.ltrans2.ltrans.o
                0x0804ceac                tcp_timer_needed
 .text.lwip_netconn_do_listen
                0x0804cee0      0x130 C:\Users\alien\AppData\Local\Temp\ccodVkrc.ltrans2.ltrans.o
                0x0804cee0                lwip_netconn_do_listen
 .text.lwip_netconn_do_bind
                0x0804d010      0x108 C:\Users\alien\AppData\Local\Temp\ccodVkrc.ltrans2.ltrans.o
 .text.unlikely.tcp_rexmit
                0x0804d118       0x54 C:\Users\alien\AppData\Local\Temp\ccodVkrc.ltrans2.ltrans.o
                0x0804d118                tcp_rexmit
 .text.tcp_rst  0x0804d16c       0x8a C:\Users\alien\AppData\Local\Temp\ccodVkrc.ltrans2.ltrans.o
                0x0804d16c                tcp_rst
 *fill*         0x0804d1f6        0x2 
 .text.tcp_output
                0x0804d1f8      0x240 C:\Users\alien\AppData\Local\Temp\ccodVkrc.ltrans2.ltrans.o
                0x0804d1f8                tcp_output
 .text.tcp_rexmit_rto
                0x0804d438       0x32 C:\Users\alien\AppData\Local\Temp\ccodVkrc.ltrans2.ltrans.o
                0x0804d438                tcp_rexmit_rto
 *fill*         0x0804d46a        0x2 
 .text.tcpip_thread.lto_priv.357
                0x0804d46c      0x100 C:\Users\alien\AppData\Local\Temp\ccodVkrc.ltrans2.ltrans.o
                0x0804d46c                tcpip_thread.lto_priv.357
 .text.netconn_apimsg.lto_priv.301
                0x0804d56c       0x24 C:\Users\alien\AppData\Local\Temp\ccodVkrc.ltrans2.ltrans.o
                0x0804d56c                netconn_apimsg.lto_priv.301
 .text.netconn_close_shutdown.lto_priv.376
                0x0804d590       0x2c C:\Users\alien\AppData\Local\Temp\ccodVkrc.ltrans2.ltrans.o
                0x0804d590                netconn_close_shutdown.lto_priv.376
 .text.netconn_recv_data
                0x0804d5bc       0xd0 C:\Users\alien\AppData\Local\Temp\ccodVkrc.ltrans2.ltrans.o
 .text.netconn_recv
                0x0804d68c       0x5e C:\Users\alien\AppData\Local\Temp\ccodVkrc.ltrans2.ltrans.o
                0x0804d68c                netconn_recv
 *fill*         0x0804d6ea        0x2 
 .text.netconn_bind
                0x0804d6ec       0x30 C:\Users\alien\AppData\Local\Temp\ccodVkrc.ltrans2.ltrans.o
                0x0804d6ec                netconn_bind
 .text.netconn_delete
                0x0804d71c       0x34 C:\Users\alien\AppData\Local\Temp\ccodVkrc.ltrans2.ltrans.o
                0x0804d71c                netconn_delete
 .text.lwip_close
                0x0804d750       0x70 C:\Users\alien\AppData\Local\Temp\ccodVkrc.ltrans2.ltrans.o
                0x0804d750                lwip_close
 .text.netconn_new_with_proto_and_callback
                0x0804d7c0       0x44 C:\Users\alien\AppData\Local\Temp\ccodVkrc.ltrans2.ltrans.o
                0x0804d7c0                netconn_new_with_proto_and_callback
 .text.event_callback.lto_priv.331
                0x0804d804      0x104 C:\Users\alien\AppData\Local\Temp\ccodVkrc.ltrans2.ltrans.o
                0x0804d804                event_callback.lto_priv.331
 .text.lwip_recvfrom
                0x0804d908      0x1dc C:\Users\alien\AppData\Local\Temp\ccodVkrc.ltrans2.ltrans.o
                0x0804d908                lwip_recvfrom
 .text.lwip_netconn_do_gethostbyname
                0x0804dae4      0x3a8 C:\Users\alien\AppData\Local\Temp\ccodVkrc.ltrans2.ltrans.o
                0x0804dae4                lwip_netconn_do_gethostbyname
 .text.lwip_netconn_do_dns_found
                0x0804de8c       0x1a C:\Users\alien\AppData\Local\Temp\ccodVkrc.ltrans2.ltrans.o
 *fill*         0x0804dea6        0x2 
 .text.lwip_netconn_do_writemore
                0x0804dea8      0x4b4 C:\Users\alien\AppData\Local\Temp\ccodVkrc.ltrans2.ltrans.o
 .text.lwip_netconn_do_write
                0x0804e35c       0x7c C:\Users\alien\AppData\Local\Temp\ccodVkrc.ltrans2.ltrans.o
                0x0804e35c                lwip_netconn_do_write
 .text.lwip_netconn_do_close_internal
                0x0804e3d8      0x1a0 C:\Users\alien\AppData\Local\Temp\ccodVkrc.ltrans2.ltrans.o
 .text.lwip_netconn_do_close
                0x0804e578       0x84 C:\Users\alien\AppData\Local\Temp\ccodVkrc.ltrans2.ltrans.o
 .text.lwip_netconn_do_delconn
                0x0804e5fc       0xb8 C:\Users\alien\AppData\Local\Temp\ccodVkrc.ltrans2.ltrans.o
 .text.sent_tcp
                0x0804e6b4       0x50 C:\Users\alien\AppData\Local\Temp\ccodVkrc.ltrans2.ltrans.o
 .text.poll_tcp
                0x0804e704       0x50 C:\Users\alien\AppData\Local\Temp\ccodVkrc.ltrans2.ltrans.o
 .text.err_tcp  0x0804e754       0xb8 C:\Users\alien\AppData\Local\Temp\ccodVkrc.ltrans2.ltrans.o
 .text.MeasuredValueShort_getFromBuffer.constprop.222
                0x0804e80c       0x54 C:\Users\alien\AppData\Local\Temp\ccodVkrc.ltrans3.ltrans.o
 .text.MeasuredValueScaled_getFromBuffer.constprop.220
                0x0804e860       0x4c C:\Users\alien\AppData\Local\Temp\ccodVkrc.ltrans3.ltrans.o
 .text.MeasuredValueNormalized_getFromBuffer.constprop.218
                0x0804e8ac       0x4c C:\Users\alien\AppData\Local\Temp\ccodVkrc.ltrans3.ltrans.o
 .text.PackedSinglePointWithSCD_getFromBuffer.constprop.183
                0x0804e8f8       0x64 C:\Users\alien\AppData\Local\Temp\ccodVkrc.ltrans3.ltrans.o
 .text.PackedOutputCircuitInfoWithCP56Time2a_getFromBuffer.constprop.195
                0x0804e95c       0x78 C:\Users\alien\AppData\Local\Temp\ccodVkrc.ltrans3.ltrans.o
 .text.PackedStartEventsOfProtectionEquipmentWithCP56Time2a_getFromBuffer.constprop.194
                0x0804e9d4       0x78 C:\Users\alien\AppData\Local\Temp\ccodVkrc.ltrans3.ltrans.o
 .text.EventOfProtectionEquipmentWithCP56Time2a_getFromBuffer.constprop.193
                0x0804ea4c       0x74 C:\Users\alien\AppData\Local\Temp\ccodVkrc.ltrans3.ltrans.o
 .text.MeasuredValueShortWithCP56Time2a_getFromBuffer.constprop.191
                0x0804eac0       0x64 C:\Users\alien\AppData\Local\Temp\ccodVkrc.ltrans3.ltrans.o
 .text.MeasuredValueScaledWithCP56Time2a_getFromBuffer.constprop.190
                0x0804eb24       0x5c C:\Users\alien\AppData\Local\Temp\ccodVkrc.ltrans3.ltrans.o
 .text.MeasuredValueNormalizedWithCP56Time2a_getFromBuffer.constprop.189
                0x0804eb80       0x5c C:\Users\alien\AppData\Local\Temp\ccodVkrc.ltrans3.ltrans.o
 .text.StepPositionWithCP56Time2a_getFromBuffer.constprop.187
                0x0804ebdc       0x58 C:\Users\alien\AppData\Local\Temp\ccodVkrc.ltrans3.ltrans.o
 .text.SinglePointWithCP56Time2a_getFromBuffer.constprop.185
                0x0804ec34       0x5c C:\Users\alien\AppData\Local\Temp\ccodVkrc.ltrans3.ltrans.o
 .text.PackedOutputCircuitInfo_getFromBuffer.constprop.182
                0x0804ec90       0x78 C:\Users\alien\AppData\Local\Temp\ccodVkrc.ltrans3.ltrans.o
 .text.PackedStartEventsOfProtectionEquipment_getFromBuffer.constprop.181
                0x0804ed08       0x78 C:\Users\alien\AppData\Local\Temp\ccodVkrc.ltrans3.ltrans.o
 .text.EventOfProtectionEquipment_getFromBuffer.constprop.180
                0x0804ed80       0x74 C:\Users\alien\AppData\Local\Temp\ccodVkrc.ltrans3.ltrans.o
 .text.MeasuredValueShortWithCP24Time2a_getFromBuffer.constprop.177
                0x0804edf4       0x64 C:\Users\alien\AppData\Local\Temp\ccodVkrc.ltrans3.ltrans.o
 .text.MeasuredValueScaledWithCP24Time2a_getFromBuffer.constprop.176
                0x0804ee58       0x5c C:\Users\alien\AppData\Local\Temp\ccodVkrc.ltrans3.ltrans.o
 .text.MeasuredValueNormalizedWithCP24Time2a_getFromBuffer.constprop.175
                0x0804eeb4       0x5c C:\Users\alien\AppData\Local\Temp\ccodVkrc.ltrans3.ltrans.o
 .text.SinglePointWithCP24Time2a_getFromBuffer.constprop.168
                0x0804ef10       0x5c C:\Users\alien\AppData\Local\Temp\ccodVkrc.ltrans3.ltrans.o
 .text.prvCopyDataToQueue.constprop.239
                0x0804ef6c       0xe0 C:\Users\alien\AppData\Local\Temp\ccodVkrc.ltrans3.ltrans.o
                0x0804ef6c                prvCopyDataToQueue.constprop.239
 .text.sys_arch_unprotect.constprop.234
                0x0804f04c        0xc C:\Users\alien\AppData\Local\Temp\ccodVkrc.ltrans3.ltrans.o
                0x0804f04c                sys_arch_unprotect.constprop.234
 .text.lwip_send.constprop.229
                0x0804f058       0x9c C:\Users\alien\AppData\Local\Temp\ccodVkrc.ltrans3.ltrans.o
                0x0804f058                lwip_send.constprop.229
 .text.lwip_sendto.constprop.230
                0x0804f0f4       0xdc C:\Users\alien\AppData\Local\Temp\ccodVkrc.ltrans3.ltrans.o
                0x0804f0f4                lwip_sendto.constprop.230
 .text.xQueueGenericCreate.constprop.227
                0x0804f1d0       0x84 C:\Users\alien\AppData\Local\Temp\ccodVkrc.ltrans3.ltrans.o
                0x0804f1d0                xQueueGenericCreate.constprop.227
 .text.ASDU_getElement.constprop.166
                0x0804f254     0x11f0 C:\Users\alien\AppData\Local\Temp\ccodVkrc.ltrans3.ltrans.o
                0x0804f254                ASDU_getElement.constprop.166
 .text.lwip_selscan.constprop.163
                0x08050444       0xcc C:\Users\alien\AppData\Local\Temp\ccodVkrc.ltrans3.ltrans.o
                0x08050444                lwip_selscan.constprop.163
 .text.lwip_bind.constprop.154
                0x08050510       0x5c C:\Users\alien\AppData\Local\Temp\ccodVkrc.ltrans3.ltrans.o
                0x08050510                lwip_bind.constprop.154
 .text.sys_mbox_new.constprop.152
                0x0805056c       0x18 C:\Users\alien\AppData\Local\Temp\ccodVkrc.ltrans3.ltrans.o
                0x0805056c                sys_mbox_new.constprop.152
 .text.ASDU_create.constprop.142
                0x08050584       0x6a C:\Users\alien\AppData\Local\Temp\ccodVkrc.ltrans3.ltrans.o
                0x08050584                ASDU_create.constprop.142
 .text.Memory_calloc.constprop.141
                0x080505ee       0x1e C:\Users\alien\AppData\Local\Temp\ccodVkrc.ltrans3.ltrans.o
                0x080505ee                Memory_calloc.constprop.141
 .text.SinglePointInformation_create.constprop.140
                0x0805060c       0x2c C:\Users\alien\AppData\Local\Temp\ccodVkrc.ltrans3.ltrans.o
                0x0805060c                SinglePointInformation_create.constprop.140
 .text.DoublePointInformation_create.constprop.139
                0x08050638       0x2c C:\Users\alien\AppData\Local\Temp\ccodVkrc.ltrans3.ltrans.o
                0x08050638                DoublePointInformation_create.constprop.139
 .text.HAL_ETH_WritePHYRegister.constprop.132
                0x08050664       0x84 C:\Users\alien\AppData\Local\Temp\ccodVkrc.ltrans3.ltrans.o
                0x08050664                HAL_ETH_WritePHYRegister.constprop.132
 .text.HAL_ETH_ReadPHYRegister.constprop.130
                0x080506e8       0x88 C:\Users\alien\AppData\Local\Temp\ccodVkrc.ltrans3.ltrans.o
                0x080506e8                HAL_ETH_ReadPHYRegister.constprop.130
 .text.HAL_NVIC_SetPriority.constprop.128
                0x08050770       0x5c C:\Users\alien\AppData\Local\Temp\ccodVkrc.ltrans3.ltrans.o
                0x08050770                HAL_NVIC_SetPriority.constprop.128
 .text.HAL_CAN_Receive_IT.constprop.123
                0x080507cc       0x7c C:\Users\alien\AppData\Local\Temp\ccodVkrc.ltrans3.ltrans.o
                0x080507cc                HAL_CAN_Receive_IT.constprop.123
 .text.HAL_UART_Receive_DMA.part.6.constprop.115
                0x08050848       0xec C:\Users\alien\AppData\Local\Temp\ccodVkrc.ltrans3.ltrans.o
                0x08050848                HAL_UART_Receive_DMA.part.6.constprop.115
 .text.ulTaskNotifyTake.constprop.113
                0x08050934       0x5c C:\Users\alien\AppData\Local\Temp\ccodVkrc.ltrans3.ltrans.o
                0x08050934                ulTaskNotifyTake.constprop.113
 .text.UART_WaitOnFlagUntilTimeout.constprop.111
                0x08050990       0x48 C:\Users\alien\AppData\Local\Temp\ccodVkrc.ltrans3.ltrans.o
                0x08050990                UART_WaitOnFlagUntilTimeout.constprop.111
 .text.HAL_UART_Transmit.part.1.constprop.110
                0x080509d8       0x88 C:\Users\alien\AppData\Local\Temp\ccodVkrc.ltrans3.ltrans.o
                0x080509d8                HAL_UART_Transmit.part.1.constprop.110
 .text.HAL_UART_Init.constprop.105
                0x08050a60      0x4e0 C:\Users\alien\AppData\Local\Temp\ccodVkrc.ltrans3.ltrans.o
                0x08050a60                HAL_UART_Init.constprop.105
 .text.BSP_USART6_UART_Init.constprop.104
                0x08050f40       0x4c C:\Users\alien\AppData\Local\Temp\ccodVkrc.ltrans3.ltrans.o
                0x08050f40                BSP_USART6_UART_Init.constprop.104
 .text.FLASH_WaitForLastOperation.constprop.103
                0x08050f8c       0xa8 C:\Users\alien\AppData\Local\Temp\ccodVkrc.ltrans3.ltrans.o
                0x08050f8c                FLASH_WaitForLastOperation.constprop.103
 .text.ETH_Delay.constprop.98
                0x08051034       0x24 C:\Users\alien\AppData\Local\Temp\ccodVkrc.ltrans3.ltrans.o
                0x08051034                ETH_Delay.constprop.98
 .text.ETH_MACDMAConfig.constprop.85
                0x08051058       0xfc C:\Users\alien\AppData\Local\Temp\ccodVkrc.ltrans3.ltrans.o
                0x08051058                ETH_MACDMAConfig.constprop.85
 .text.HAL_TIM_Base_Init.constprop.75
                0x08051154      0x25c C:\Users\alien\AppData\Local\Temp\ccodVkrc.ltrans3.ltrans.o
                0x08051154                HAL_TIM_Base_Init.constprop.75
 .text.HAL_RTC_WaitForSynchro.constprop.74
                0x080513b0       0x30 C:\Users\alien\AppData\Local\Temp\ccodVkrc.ltrans3.ltrans.o
                0x080513b0                HAL_RTC_WaitForSynchro.constprop.74
 .text.RTC_EnterInitMode.constprop.73
                0x080513e0       0x34 C:\Users\alien\AppData\Local\Temp\ccodVkrc.ltrans3.ltrans.o
                0x080513e0                RTC_EnterInitMode.constprop.73
 .text.xQueueGenericSend.constprop.238
                0x08051414      0x160 C:\Users\alien\AppData\Local\Temp\ccodVkrc.ltrans3.ltrans.o
                0x08051414                xQueueGenericSend.constprop.238
 .text.osSemaphoreCreate.constprop.226
                0x08051574       0x1a C:\Users\alien\AppData\Local\Temp\ccodVkrc.ltrans3.ltrans.o
                0x08051574                osSemaphoreCreate.constprop.226
 .text.sys_sem_new.constprop.162
                0x0805158e       0x1c C:\Users\alien\AppData\Local\Temp\ccodVkrc.ltrans3.ltrans.o
                0x0805158e                sys_sem_new.constprop.162
 *fill*         0x080515aa        0x2 
 .text.prvvTransmitRemoteFrame.constprop.125
                0x080515ac       0x38 C:\Users\alien\AppData\Local\Temp\ccodVkrc.ltrans3.ltrans.o
                0x080515ac                prvvTransmitRemoteFrame.constprop.125
 .text.xQueueGenericReceive.constprop.237
                0x080515e4      0x228 C:\Users\alien\AppData\Local\Temp\ccodVkrc.ltrans3.ltrans.o
                0x080515e4                xQueueGenericReceive.constprop.237
 .text.osMutexWait.constprop.236
                0x0805180c       0x50 C:\Users\alien\AppData\Local\Temp\ccodVkrc.ltrans3.ltrans.o
                0x0805180c                osMutexWait.constprop.236
 .text.Reset_Handler
                0x0805185c       0x50 ./startup_stm32f407xx.o
                0x0805185c                Reset_Handler
 .text.Default_Handler
                0x080518ac        0x2 ./startup_stm32f407xx.o
                0x080518ac                RTC_Alarm_IRQHandler
                0x080518ac                HASH_RNG_IRQHandler
                0x080518ac                EXTI2_IRQHandler
                0x080518ac                TIM8_CC_IRQHandler
                0x080518ac                DebugMon_Handler
                0x080518ac                TIM1_CC_IRQHandler
                0x080518ac                DMA2_Stream5_IRQHandler
                0x080518ac                HardFault_Handler
                0x080518ac                DMA1_Stream5_IRQHandler
                0x080518ac                SysTick_Handler
                0x080518ac                PVD_IRQHandler
                0x080518ac                SDIO_IRQHandler
                0x080518ac                TAMP_STAMP_IRQHandler
                0x080518ac                PendSV_Handler
                0x080518ac                NMI_Handler
                0x080518ac                CAN2_RX1_IRQHandler
                0x080518ac                EXTI3_IRQHandler
                0x080518ac                TIM8_TRG_COM_TIM14_IRQHandler
                0x080518ac                TIM1_UP_TIM10_IRQHandler
                0x080518ac                TIM8_UP_TIM13_IRQHandler
                0x080518ac                I2C3_ER_IRQHandler
                0x080518ac                EXTI0_IRQHandler
                0x080518ac                I2C2_EV_IRQHandler
                0x080518ac                DMA1_Stream2_IRQHandler
                0x080518ac                CAN1_RX0_IRQHandler
                0x080518ac                FPU_IRQHandler
                0x080518ac                OTG_HS_WKUP_IRQHandler
                0x080518ac                UsageFault_Handler
                0x080518ac                CAN2_SCE_IRQHandler
                0x080518ac                DMA2_Stream2_IRQHandler
                0x080518ac                SPI1_IRQHandler
                0x080518ac                TIM6_DAC_IRQHandler
                0x080518ac                TIM1_BRK_TIM9_IRQHandler
                0x080518ac                DCMI_IRQHandler
                0x080518ac                CAN2_RX0_IRQHandler
                0x080518ac                DMA2_Stream3_IRQHandler
                0x080518ac                USART6_IRQHandler
                0x080518ac                USART3_IRQHandler
                0x080518ac                CAN1_RX1_IRQHandler
                0x080518ac                UART5_IRQHandler
                0x080518ac                DMA2_Stream0_IRQHandler
                0x080518ac                TIM4_IRQHandler
                0x080518ac                I2C1_EV_IRQHandler
                0x080518ac                DMA1_Stream6_IRQHandler
                0x080518ac                DMA1_Stream1_IRQHandler
                0x080518ac                UART4_IRQHandler
                0x080518ac                TIM3_IRQHandler
                0x080518ac                RCC_IRQHandler
                0x080518ac                TIM8_BRK_TIM12_IRQHandler
                0x080518ac                Default_Handler
                0x080518ac                EXTI15_10_IRQHandler
                0x080518ac                ADC_IRQHandler
                0x080518ac                DMA1_Stream7_IRQHandler
                0x080518ac                TIM7_IRQHandler
                0x080518ac                CAN2_TX_IRQHandler
                0x080518ac                TIM5_IRQHandler
                0x080518ac                DMA2_Stream7_IRQHandler
                0x080518ac                I2C3_EV_IRQHandler
                0x080518ac                EXTI9_5_IRQHandler
                0x080518ac                RTC_WKUP_IRQHandler
                0x080518ac                ETH_WKUP_IRQHandler
                0x080518ac                SPI2_IRQHandler
                0x080518ac                OTG_HS_EP1_IN_IRQHandler
                0x080518ac                MemManage_Handler
                0x080518ac                DMA1_Stream0_IRQHandler
                0x080518ac                CAN1_TX_IRQHandler
                0x080518ac                SVC_Handler
                0x080518ac                EXTI4_IRQHandler
                0x080518ac                FSMC_IRQHandler
                0x080518ac                ETH_IRQHandler
                0x080518ac                OTG_HS_EP1_OUT_IRQHandler
                0x080518ac                WWDG_IRQHandler
                0x080518ac                TIM2_IRQHandler
                0x080518ac                OTG_FS_WKUP_IRQHandler
                0x080518ac                TIM1_TRG_COM_TIM11_IRQHandler
                0x080518ac                OTG_HS_IRQHandler
                0x080518ac                EXTI1_IRQHandler
                0x080518ac                USART2_IRQHandler
                0x080518ac                I2C2_ER_IRQHandler
                0x080518ac                DMA2_Stream1_IRQHandler
                0x080518ac                CAN1_SCE_IRQHandler
                0x080518ac                FLASH_IRQHandler
                0x080518ac                DMA2_Stream4_IRQHandler
                0x080518ac                BusFault_Handler
                0x080518ac                USART1_IRQHandler
                0x080518ac                OTG_FS_IRQHandler
                0x080518ac                SPI3_IRQHandler
                0x080518ac                DMA1_Stream4_IRQHandler
                0x080518ac                I2C1_ER_IRQHandler
                0x080518ac                DMA2_Stream6_IRQHandler
                0x080518ac                DMA1_Stream3_IRQHandler
 *fill*         0x080518ae        0x2 
 .text.calloc   0x080518b0       0x10 d:/gnu/gcc-arm-none-eabi-7-2017-q4-major-win32/bin/../lib/gcc/arm-none-eabi/7.2.1/../../../../arm-none-eabi/lib/thumb/v7e-m/fpv4-sp/hard\libg_nano.a(lib_a-calloc.o)
                0x080518b0                calloc
 .text.__libc_init_array
                0x080518c0       0x48 d:/gnu/gcc-arm-none-eabi-7-2017-q4-major-win32/bin/../lib/gcc/arm-none-eabi/7.2.1/../../../../arm-none-eabi/lib/thumb/v7e-m/fpv4-sp/hard\libg_nano.a(lib_a-init.o)
                0x080518c0                __libc_init_array
 .text.localtime_r
                0x08051908      0x1d8 d:/gnu/gcc-arm-none-eabi-7-2017-q4-major-win32/bin/../lib/gcc/arm-none-eabi/7.2.1/../../../../arm-none-eabi/lib/thumb/v7e-m/fpv4-sp/hard\libg_nano.a(lib_a-lcltime_r.o)
                0x08051908                localtime_r
 .text.memcmp   0x08051ae0       0x1e d:/gnu/gcc-arm-none-eabi-7-2017-q4-major-win32/bin/../lib/gcc/arm-none-eabi/7.2.1/../../../../arm-none-eabi/lib/thumb/v7e-m/fpv4-sp/hard\libg_nano.a(lib_a-memcmp.o)
                0x08051ae0                memcmp
 .text.memcpy   0x08051afe       0x16 d:/gnu/gcc-arm-none-eabi-7-2017-q4-major-win32/bin/../lib/gcc/arm-none-eabi/7.2.1/../../../../arm-none-eabi/lib/thumb/v7e-m/fpv4-sp/hard\libg_nano.a(lib_a-memcpy-stub.o)
                0x08051afe                memcpy
 .text.memset   0x08051b14       0x10 d:/gnu/gcc-arm-none-eabi-7-2017-q4-major-win32/bin/../lib/gcc/arm-none-eabi/7.2.1/../../../../arm-none-eabi/lib/thumb/v7e-m/fpv4-sp/hard\libg_nano.a(lib_a-memset.o)
                0x08051b14                memset
 .text._calloc_r
                0x08051b24       0x1c d:/gnu/gcc-arm-none-eabi-7-2017-q4-major-win32/bin/../lib/gcc/arm-none-eabi/7.2.1/../../../../arm-none-eabi/lib/thumb/v7e-m/fpv4-sp/hard\libg_nano.a(lib_a-nano-callocr.o)
                0x08051b24                _calloc_r
 .text._malloc_r
                0x08051b40       0xb4 d:/gnu/gcc-arm-none-eabi-7-2017-q4-major-win32/bin/../lib/gcc/arm-none-eabi/7.2.1/../../../../arm-none-eabi/lib/thumb/v7e-m/fpv4-sp/hard\libg_nano.a(lib_a-nano-mallocr.o)
                0x08051b40                _malloc_r
 .text.printf   0x08051bf4       0x30 d:/gnu/gcc-arm-none-eabi-7-2017-q4-major-win32/bin/../lib/gcc/arm-none-eabi/7.2.1/../../../../arm-none-eabi/lib/thumb/v7e-m/fpv4-sp/hard\libg_nano.a(lib_a-printf.o)
                0x08051bf4                iprintf
                0x08051bf4                printf
 .text.rand     0x08051c24       0x68 d:/gnu/gcc-arm-none-eabi-7-2017-q4-major-win32/bin/../lib/gcc/arm-none-eabi/7.2.1/../../../../arm-none-eabi/lib/thumb/v7e-m/fpv4-sp/hard\libg_nano.a(lib_a-rand.o)
                0x08051c24                rand
 .text._sbrk_r  0x08051c8c       0x20 d:/gnu/gcc-arm-none-eabi-7-2017-q4-major-win32/bin/../lib/gcc/arm-none-eabi/7.2.1/../../../../arm-none-eabi/lib/thumb/v7e-m/fpv4-sp/hard\libg_nano.a(lib_a-sbrkr.o)
                0x08051c8c                _sbrk_r
 .text.strcpy   0x08051cac       0x10 d:/gnu/gcc-arm-none-eabi-7-2017-q4-major-win32/bin/../lib/gcc/arm-none-eabi/7.2.1/../../../../arm-none-eabi/lib/thumb/v7e-m/fpv4-sp/hard\libg_nano.a(lib_a-strcpy.o)
                0x08051cac                strcpy
 .text.strncmp  0x08051cbc       0x24 d:/gnu/gcc-arm-none-eabi-7-2017-q4-major-win32/bin/../lib/gcc/arm-none-eabi/7.2.1/../../../../arm-none-eabi/lib/thumb/v7e-m/fpv4-sp/hard\libg_nano.a(lib_a-strncmp.o)
                0x08051cbc                strncmp
 .text.strncpy  0x08051ce0       0x2a d:/gnu/gcc-arm-none-eabi-7-2017-q4-major-win32/bin/../lib/gcc/arm-none-eabi/7.2.1/../../../../arm-none-eabi/lib/thumb/v7e-m/fpv4-sp/hard\libg_nano.a(lib_a-strncpy.o)
                0x08051ce0                strncpy
 .text._strtol_l.isra.0
                0x08051d0a       0xf6 d:/gnu/gcc-arm-none-eabi-7-2017-q4-major-win32/bin/../lib/gcc/arm-none-eabi/7.2.1/../../../../arm-none-eabi/lib/thumb/v7e-m/fpv4-sp/hard\libg_nano.a(lib_a-strtol.o)
 .text._strtol_r
                0x08051e00       0x24 d:/gnu/gcc-arm-none-eabi-7-2017-q4-major-win32/bin/../lib/gcc/arm-none-eabi/7.2.1/../../../../arm-none-eabi/lib/thumb/v7e-m/fpv4-sp/hard\libg_nano.a(lib_a-strtol.o)
                0x08051e00                _strtol_r
 .text.__tzcalc_limits
                0x08051e24      0x150 d:/gnu/gcc-arm-none-eabi-7-2017-q4-major-win32/bin/../lib/gcc/arm-none-eabi/7.2.1/../../../../arm-none-eabi/lib/thumb/v7e-m/fpv4-sp/hard\libg_nano.a(lib_a-tzcalc_limits.o)
                0x08051e24                __tzcalc_limits
 .text.__tz_lock
                0x08051f74        0x2 d:/gnu/gcc-arm-none-eabi-7-2017-q4-major-win32/bin/../lib/gcc/arm-none-eabi/7.2.1/../../../../arm-none-eabi/lib/thumb/v7e-m/fpv4-sp/hard\libg_nano.a(lib_a-tzlock.o)
                0x08051f74                __tz_lock
 .text.__tz_unlock
                0x08051f76        0x2 d:/gnu/gcc-arm-none-eabi-7-2017-q4-major-win32/bin/../lib/gcc/arm-none-eabi/7.2.1/../../../../arm-none-eabi/lib/thumb/v7e-m/fpv4-sp/hard\libg_nano.a(lib_a-tzlock.o)
                0x08051f76                __tz_unlock
 .text._tzset_unlocked
                0x08051f78        0xc d:/gnu/gcc-arm-none-eabi-7-2017-q4-major-win32/bin/../lib/gcc/arm-none-eabi/7.2.1/../../../../arm-none-eabi/lib/thumb/v7e-m/fpv4-sp/hard\libg_nano.a(lib_a-tzset.o)
                0x08051f78                _tzset_unlocked
 .text._tzset_unlocked_r
                0x08051f84      0x2fc d:/gnu/gcc-arm-none-eabi-7-2017-q4-major-win32/bin/../lib/gcc/arm-none-eabi/7.2.1/../../../../arm-none-eabi/lib/thumb/v7e-m/fpv4-sp/hard\libg_nano.a(lib_a-tzset_r.o)
                0x08051f84                _tzset_unlocked_r
 .text.std      0x08052280       0x48 d:/gnu/gcc-arm-none-eabi-7-2017-q4-major-win32/bin/../lib/gcc/arm-none-eabi/7.2.1/../../../../arm-none-eabi/lib/thumb/v7e-m/fpv4-sp/hard\libg_nano.a(lib_a-findfp.o)
 .text._cleanup_r
                0x080522c8        0xc d:/gnu/gcc-arm-none-eabi-7-2017-q4-major-win32/bin/../lib/gcc/arm-none-eabi/7.2.1/../../../../arm-none-eabi/lib/thumb/v7e-m/fpv4-sp/hard\libg_nano.a(lib_a-findfp.o)
                0x080522c8                _cleanup_r
 .text.__sfmoreglue
                0x080522d4       0x2c d:/gnu/gcc-arm-none-eabi-7-2017-q4-major-win32/bin/../lib/gcc/arm-none-eabi/7.2.1/../../../../arm-none-eabi/lib/thumb/v7e-m/fpv4-sp/hard\libg_nano.a(lib_a-findfp.o)
                0x080522d4                __sfmoreglue
 .text.__sinit  0x08052300       0x60 d:/gnu/gcc-arm-none-eabi-7-2017-q4-major-win32/bin/../lib/gcc/arm-none-eabi/7.2.1/../../../../arm-none-eabi/lib/thumb/v7e-m/fpv4-sp/hard\libg_nano.a(lib_a-findfp.o)
                0x08052300                __sinit
 .text.__sfp    0x08052360       0x78 d:/gnu/gcc-arm-none-eabi-7-2017-q4-major-win32/bin/../lib/gcc/arm-none-eabi/7.2.1/../../../../arm-none-eabi/lib/thumb/v7e-m/fpv4-sp/hard\libg_nano.a(lib_a-findfp.o)
                0x08052360                __sfp
 .text._fwalk_reent
                0x080523d8       0x3c d:/gnu/gcc-arm-none-eabi-7-2017-q4-major-win32/bin/../lib/gcc/arm-none-eabi/7.2.1/../../../../arm-none-eabi/lib/thumb/v7e-m/fpv4-sp/hard\libg_nano.a(lib_a-fwalk.o)
                0x080523d8                _fwalk_reent
 .text._findenv_r
                0x08052414       0x78 d:/gnu/gcc-arm-none-eabi-7-2017-q4-major-win32/bin/../lib/gcc/arm-none-eabi/7.2.1/../../../../arm-none-eabi/lib/thumb/v7e-m/fpv4-sp/hard\libg_nano.a(lib_a-getenv_r.o)
                0x08052414                _findenv_r
 .text._getenv_r
                0x0805248c        0xe d:/gnu/gcc-arm-none-eabi-7-2017-q4-major-win32/bin/../lib/gcc/arm-none-eabi/7.2.1/../../../../arm-none-eabi/lib/thumb/v7e-m/fpv4-sp/hard\libg_nano.a(lib_a-getenv_r.o)
                0x0805248c                _getenv_r
 *fill*         0x0805249a        0x2 
 .text.__gettzinfo
                0x0805249c        0x8 d:/gnu/gcc-arm-none-eabi-7-2017-q4-major-win32/bin/../lib/gcc/arm-none-eabi/7.2.1/../../../../arm-none-eabi/lib/thumb/v7e-m/fpv4-sp/hard\libg_nano.a(lib_a-gettzinfo.o)
                0x0805249c                __gettzinfo
 .text.gmtime_r
                0x080524a4      0x15c d:/gnu/gcc-arm-none-eabi-7-2017-q4-major-win32/bin/../lib/gcc/arm-none-eabi/7.2.1/../../../../arm-none-eabi/lib/thumb/v7e-m/fpv4-sp/hard\libg_nano.a(lib_a-gmtime_r.o)
                0x080524a4                gmtime_r
 .text.__locale_ctype_ptr_l
                0x08052600        0x6 d:/gnu/gcc-arm-none-eabi-7-2017-q4-major-win32/bin/../lib/gcc/arm-none-eabi/7.2.1/../../../../arm-none-eabi/lib/thumb/v7e-m/fpv4-sp/hard\libg_nano.a(lib_a-locale.o)
                0x08052600                __locale_ctype_ptr_l
 *fill*         0x08052606        0x2 
 .text.__locale_ctype_ptr
                0x08052608       0x1c d:/gnu/gcc-arm-none-eabi-7-2017-q4-major-win32/bin/../lib/gcc/arm-none-eabi/7.2.1/../../../../arm-none-eabi/lib/thumb/v7e-m/fpv4-sp/hard\libg_nano.a(lib_a-locale.o)
                0x08052608                __locale_ctype_ptr
 .text.malloc   0x08052624       0x10 d:/gnu/gcc-arm-none-eabi-7-2017-q4-major-win32/bin/../lib/gcc/arm-none-eabi/7.2.1/../../../../arm-none-eabi/lib/thumb/v7e-m/fpv4-sp/hard\libg_nano.a(lib_a-malloc.o)
                0x08052624                malloc
 .text.free     0x08052634       0x10 d:/gnu/gcc-arm-none-eabi-7-2017-q4-major-win32/bin/../lib/gcc/arm-none-eabi/7.2.1/../../../../arm-none-eabi/lib/thumb/v7e-m/fpv4-sp/hard\libg_nano.a(lib_a-malloc.o)
                0x08052634                free
 .text.__ascii_mbtowc
                0x08052644       0x24 d:/gnu/gcc-arm-none-eabi-7-2017-q4-major-win32/bin/../lib/gcc/arm-none-eabi/7.2.1/../../../../arm-none-eabi/lib/thumb/v7e-m/fpv4-sp/hard\libg_nano.a(lib_a-mbtowc_r.o)
                0x08052644                __ascii_mbtowc
 .text.__malloc_lock
                0x08052668        0x2 d:/gnu/gcc-arm-none-eabi-7-2017-q4-major-win32/bin/../lib/gcc/arm-none-eabi/7.2.1/../../../../arm-none-eabi/lib/thumb/v7e-m/fpv4-sp/hard\libg_nano.a(lib_a-mlock.o)
                0x08052668                __malloc_lock
 .text.__malloc_unlock
                0x0805266a        0x2 d:/gnu/gcc-arm-none-eabi-7-2017-q4-major-win32/bin/../lib/gcc/arm-none-eabi/7.2.1/../../../../arm-none-eabi/lib/thumb/v7e-m/fpv4-sp/hard\libg_nano.a(lib_a-mlock.o)
                0x0805266a                __malloc_unlock
 .text._free_r  0x0805266c       0x9c d:/gnu/gcc-arm-none-eabi-7-2017-q4-major-win32/bin/../lib/gcc/arm-none-eabi/7.2.1/../../../../arm-none-eabi/lib/thumb/v7e-m/fpv4-sp/hard\libg_nano.a(lib_a-nano-freer.o)
                0x0805266c                _free_r
 .text._realloc_r
                0x08052708       0x4c d:/gnu/gcc-arm-none-eabi-7-2017-q4-major-win32/bin/../lib/gcc/arm-none-eabi/7.2.1/../../../../arm-none-eabi/lib/thumb/v7e-m/fpv4-sp/hard\libg_nano.a(lib_a-nano-reallocr.o)
                0x08052708                _realloc_r
 .text.__sfputc_r
                0x08052754       0x2e d:/gnu/gcc-arm-none-eabi-7-2017-q4-major-win32/bin/../lib/gcc/arm-none-eabi/7.2.1/../../../../arm-none-eabi/lib/thumb/v7e-m/fpv4-sp/hard\libg_nano.a(lib_a-nano-vfprintf.o)
 .text.__sfputs_r
                0x08052782       0x24 d:/gnu/gcc-arm-none-eabi-7-2017-q4-major-win32/bin/../lib/gcc/arm-none-eabi/7.2.1/../../../../arm-none-eabi/lib/thumb/v7e-m/fpv4-sp/hard\libg_nano.a(lib_a-nano-vfprintf.o)
                0x08052782                __sfputs_r
 *fill*         0x080527a6        0x2 
 .text._vfprintf_r
                0x080527a8      0x228 d:/gnu/gcc-arm-none-eabi-7-2017-q4-major-win32/bin/../lib/gcc/arm-none-eabi/7.2.1/../../../../arm-none-eabi/lib/thumb/v7e-m/fpv4-sp/hard\libg_nano.a(lib_a-nano-vfprintf.o)
                0x080527a8                _vfprintf_r
                0x080527a8                _vfiprintf_r
 .text._printf_common
                0x080529d0       0xea d:/gnu/gcc-arm-none-eabi-7-2017-q4-major-win32/bin/../lib/gcc/arm-none-eabi/7.2.1/../../../../arm-none-eabi/lib/thumb/v7e-m/fpv4-sp/hard\libg_nano.a(lib_a-nano-vfprintf_i.o)
                0x080529d0                _printf_common
 *fill*         0x08052aba        0x2 
 .text._printf_i
                0x08052abc      0x224 d:/gnu/gcc-arm-none-eabi-7-2017-q4-major-win32/bin/../lib/gcc/arm-none-eabi/7.2.1/../../../../arm-none-eabi/lib/thumb/v7e-m/fpv4-sp/hard\libg_nano.a(lib_a-nano-vfprintf_i.o)
                0x08052abc                _printf_i
 .text.sscanf   0x08052ce0       0x54 d:/gnu/gcc-arm-none-eabi-7-2017-q4-major-win32/bin/../lib/gcc/arm-none-eabi/7.2.1/../../../../arm-none-eabi/lib/thumb/v7e-m/fpv4-sp/hard\libg_nano.a(lib_a-sscanf.o)
                0x08052ce0                siscanf
                0x08052ce0                sscanf
 .text.__sread  0x08052d34       0x22 d:/gnu/gcc-arm-none-eabi-7-2017-q4-major-win32/bin/../lib/gcc/arm-none-eabi/7.2.1/../../../../arm-none-eabi/lib/thumb/v7e-m/fpv4-sp/hard\libg_nano.a(lib_a-stdio.o)
                0x08052d34                __sread
 .text.__seofread
                0x08052d56        0x4 d:/gnu/gcc-arm-none-eabi-7-2017-q4-major-win32/bin/../lib/gcc/arm-none-eabi/7.2.1/../../../../arm-none-eabi/lib/thumb/v7e-m/fpv4-sp/hard\libg_nano.a(lib_a-stdio.o)
                0x08052d56                __seofread
 .text.__swrite
                0x08052d5a       0x38 d:/gnu/gcc-arm-none-eabi-7-2017-q4-major-win32/bin/../lib/gcc/arm-none-eabi/7.2.1/../../../../arm-none-eabi/lib/thumb/v7e-m/fpv4-sp/hard\libg_nano.a(lib_a-stdio.o)
                0x08052d5a                __swrite
 .text.__sseek  0x08052d92       0x24 d:/gnu/gcc-arm-none-eabi-7-2017-q4-major-win32/bin/../lib/gcc/arm-none-eabi/7.2.1/../../../../arm-none-eabi/lib/thumb/v7e-m/fpv4-sp/hard\libg_nano.a(lib_a-stdio.o)
                0x08052d92                __sseek
 .text.__sclose
                0x08052db6        0x8 d:/gnu/gcc-arm-none-eabi-7-2017-q4-major-win32/bin/../lib/gcc/arm-none-eabi/7.2.1/../../../../arm-none-eabi/lib/thumb/v7e-m/fpv4-sp/hard\libg_nano.a(lib_a-stdio.o)
                0x08052db6                __sclose
 .text._strtoul_l.isra.0
                0x08052dbe       0xf4 d:/gnu/gcc-arm-none-eabi-7-2017-q4-major-win32/bin/../lib/gcc/arm-none-eabi/7.2.1/../../../../arm-none-eabi/lib/thumb/v7e-m/fpv4-sp/hard\libg_nano.a(lib_a-strtoul.o)
 *fill*         0x08052eb2        0x2 
 .text._strtoul_r
                0x08052eb4       0x24 d:/gnu/gcc-arm-none-eabi-7-2017-q4-major-win32/bin/../lib/gcc/arm-none-eabi/7.2.1/../../../../arm-none-eabi/lib/thumb/v7e-m/fpv4-sp/hard\libg_nano.a(lib_a-strtoul.o)
                0x08052eb4                _strtoul_r
 .text.strtoul  0x08052ed8       0x2c d:/gnu/gcc-arm-none-eabi-7-2017-q4-major-win32/bin/../lib/gcc/arm-none-eabi/7.2.1/../../../../arm-none-eabi/lib/thumb/v7e-m/fpv4-sp/hard\libg_nano.a(lib_a-strtoul.o)
                0x08052ed8                strtoul
 .text.__swbuf_r
                0x08052f04       0xa4 d:/gnu/gcc-arm-none-eabi-7-2017-q4-major-win32/bin/../lib/gcc/arm-none-eabi/7.2.1/../../../../arm-none-eabi/lib/thumb/v7e-m/fpv4-sp/hard\libg_nano.a(lib_a-wbuf.o)
                0x08052f04                __swbuf_r
 .text.__ascii_wctomb
                0x08052fa8       0x1a d:/gnu/gcc-arm-none-eabi-7-2017-q4-major-win32/bin/../lib/gcc/arm-none-eabi/7.2.1/../../../../arm-none-eabi/lib/thumb/v7e-m/fpv4-sp/hard\libg_nano.a(lib_a-wctomb_r.o)
                0x08052fa8                __ascii_wctomb
 *fill*         0x08052fc2        0x2 
 .text._write_r
                0x08052fc4       0x24 d:/gnu/gcc-arm-none-eabi-7-2017-q4-major-win32/bin/../lib/gcc/arm-none-eabi/7.2.1/../../../../arm-none-eabi/lib/thumb/v7e-m/fpv4-sp/hard\libg_nano.a(lib_a-writer.o)
                0x08052fc4                _write_r
 .text.__swsetup_r
                0x08052fe8       0xdc d:/gnu/gcc-arm-none-eabi-7-2017-q4-major-win32/bin/../lib/gcc/arm-none-eabi/7.2.1/../../../../arm-none-eabi/lib/thumb/v7e-m/fpv4-sp/hard\libg_nano.a(lib_a-wsetup.o)
                0x08052fe8                __swsetup_r
 .text._close_r
                0x080530c4       0x20 d:/gnu/gcc-arm-none-eabi-7-2017-q4-major-win32/bin/../lib/gcc/arm-none-eabi/7.2.1/../../../../arm-none-eabi/lib/thumb/v7e-m/fpv4-sp/hard\libg_nano.a(lib_a-closer.o)
                0x080530c4                _close_r
 .text.__env_lock
                0x080530e4        0x2 d:/gnu/gcc-arm-none-eabi-7-2017-q4-major-win32/bin/../lib/gcc/arm-none-eabi/7.2.1/../../../../arm-none-eabi/lib/thumb/v7e-m/fpv4-sp/hard\libg_nano.a(lib_a-envlock.o)
                0x080530e4                __env_lock
 .text.__env_unlock
                0x080530e6        0x2 d:/gnu/gcc-arm-none-eabi-7-2017-q4-major-win32/bin/../lib/gcc/arm-none-eabi/7.2.1/../../../../arm-none-eabi/lib/thumb/v7e-m/fpv4-sp/hard\libg_nano.a(lib_a-envlock.o)
                0x080530e6                __env_unlock
 .text.__sflush_r
                0x080530e8      0x10c d:/gnu/gcc-arm-none-eabi-7-2017-q4-major-win32/bin/../lib/gcc/arm-none-eabi/7.2.1/../../../../arm-none-eabi/lib/thumb/v7e-m/fpv4-sp/hard\libg_nano.a(lib_a-fflush.o)
                0x080530e8                __sflush_r
 .text._fflush_r
                0x080531f4       0x54 d:/gnu/gcc-arm-none-eabi-7-2017-q4-major-win32/bin/../lib/gcc/arm-none-eabi/7.2.1/../../../../arm-none-eabi/lib/thumb/v7e-m/fpv4-sp/hard\libg_nano.a(lib_a-fflush.o)
                0x080531f4                _fflush_r
 .text._lseek_r
                0x08053248       0x24 d:/gnu/gcc-arm-none-eabi-7-2017-q4-major-win32/bin/../lib/gcc/arm-none-eabi/7.2.1/../../../../arm-none-eabi/lib/thumb/v7e-m/fpv4-sp/hard\libg_nano.a(lib_a-lseekr.o)
                0x08053248                _lseek_r
 .text.__swhatbuf_r
                0x0805326c       0x48 d:/gnu/gcc-arm-none-eabi-7-2017-q4-major-win32/bin/../lib/gcc/arm-none-eabi/7.2.1/../../../../arm-none-eabi/lib/thumb/v7e-m/fpv4-sp/hard\libg_nano.a(lib_a-makebuf.o)
                0x0805326c                __swhatbuf_r
 .text.__smakebuf_r
                0x080532b4       0x80 d:/gnu/gcc-arm-none-eabi-7-2017-q4-major-win32/bin/../lib/gcc/arm-none-eabi/7.2.1/../../../../arm-none-eabi/lib/thumb/v7e-m/fpv4-sp/hard\libg_nano.a(lib_a-makebuf.o)
                0x080532b4                __smakebuf_r
 .text._malloc_usable_size_r
                0x08053334       0x10 d:/gnu/gcc-arm-none-eabi-7-2017-q4-major-win32/bin/../lib/gcc/arm-none-eabi/7.2.1/../../../../arm-none-eabi/lib/thumb/v7e-m/fpv4-sp/hard\libg_nano.a(lib_a-nano-msizer.o)
                0x08053334                _malloc_usable_size_r
 .text._sungetc_r
                0x08053344       0x7a d:/gnu/gcc-arm-none-eabi-7-2017-q4-major-win32/bin/../lib/gcc/arm-none-eabi/7.2.1/../../../../arm-none-eabi/lib/thumb/v7e-m/fpv4-sp/hard\libg_nano.a(lib_a-nano-svfscanf.o)
                0x08053344                _sungetc_r
 .text.__ssrefill_r
                0x080533be       0x3a d:/gnu/gcc-arm-none-eabi-7-2017-q4-major-win32/bin/../lib/gcc/arm-none-eabi/7.2.1/../../../../arm-none-eabi/lib/thumb/v7e-m/fpv4-sp/hard\libg_nano.a(lib_a-nano-svfscanf.o)
                0x080533be                __ssrefill_r
 .text.__ssvfscanf_r
                0x080533f8      0x2a0 d:/gnu/gcc-arm-none-eabi-7-2017-q4-major-win32/bin/../lib/gcc/arm-none-eabi/7.2.1/../../../../arm-none-eabi/lib/thumb/v7e-m/fpv4-sp/hard\libg_nano.a(lib_a-nano-svfscanf.o)
                0x080533f8                __ssvfiscanf_r
                0x080533f8                __ssvfscanf_r
 .text._scanf_chars
                0x08053698       0xc6 d:/gnu/gcc-arm-none-eabi-7-2017-q4-major-win32/bin/../lib/gcc/arm-none-eabi/7.2.1/../../../../arm-none-eabi/lib/thumb/v7e-m/fpv4-sp/hard\libg_nano.a(lib_a-nano-vfscanf_i.o)
                0x08053698                _scanf_chars
 *fill*         0x0805375e        0x2 
 .text._scanf_i
                0x08053760      0x1e8 d:/gnu/gcc-arm-none-eabi-7-2017-q4-major-win32/bin/../lib/gcc/arm-none-eabi/7.2.1/../../../../arm-none-eabi/lib/thumb/v7e-m/fpv4-sp/hard\libg_nano.a(lib_a-nano-vfscanf_i.o)
                0x08053760                _scanf_i
 .text._read_r  0x08053948       0x24 d:/gnu/gcc-arm-none-eabi-7-2017-q4-major-win32/bin/../lib/gcc/arm-none-eabi/7.2.1/../../../../arm-none-eabi/lib/thumb/v7e-m/fpv4-sp/hard\libg_nano.a(lib_a-readr.o)
                0x08053948                _read_r
 .text.__sccl   0x0805396c       0x64 d:/gnu/gcc-arm-none-eabi-7-2017-q4-major-win32/bin/../lib/gcc/arm-none-eabi/7.2.1/../../../../arm-none-eabi/lib/thumb/v7e-m/fpv4-sp/hard\libg_nano.a(lib_a-sccl.o)
                0x0805396c                __sccl
 .text.__submore
                0x080539d0       0x74 d:/gnu/gcc-arm-none-eabi-7-2017-q4-major-win32/bin/../lib/gcc/arm-none-eabi/7.2.1/../../../../arm-none-eabi/lib/thumb/v7e-m/fpv4-sp/hard\libg_nano.a(lib_a-ungetc.o)
                0x080539d0                __submore
 .text._fstat_r
                0x08053a44       0x24 d:/gnu/gcc-arm-none-eabi-7-2017-q4-major-win32/bin/../lib/gcc/arm-none-eabi/7.2.1/../../../../arm-none-eabi/lib/thumb/v7e-m/fpv4-sp/hard\libg_nano.a(lib_a-fstatr.o)
                0x08053a44                _fstat_r
 .text._isatty_r
                0x08053a68       0x20 d:/gnu/gcc-arm-none-eabi-7-2017-q4-major-win32/bin/../lib/gcc/arm-none-eabi/7.2.1/../../../../arm-none-eabi/lib/thumb/v7e-m/fpv4-sp/hard\libg_nano.a(lib_a-isattyr.o)
                0x08053a68                _isatty_r
 *(.glue_7)
 .glue_7        0x08053a88        0x0 linker stubs
 *(.glue_7t)
 .glue_7t       0x08053a88        0x0 linker stubs
 *(.eh_frame)
 .eh_frame      0x08053a88        0x0 d:/gnu/gcc-arm-none-eabi-7-2017-q4-major-win32/bin/../lib/gcc/arm-none-eabi/7.2.1/thumb/v7e-m/fpv4-sp/hard/crtbegin.o
 *(.init)
 .init          0x08053a88        0x4 d:/gnu/gcc-arm-none-eabi-7-2017-q4-major-win32/bin/../lib/gcc/arm-none-eabi/7.2.1/thumb/v7e-m/fpv4-sp/hard/crti.o
                0x08053a88                _init
 .init          0x08053a8c        0x8 d:/gnu/gcc-arm-none-eabi-7-2017-q4-major-win32/bin/../lib/gcc/arm-none-eabi/7.2.1/thumb/v7e-m/fpv4-sp/hard/crtn.o
 *(.fini)
 .fini          0x08053a94        0x4 d:/gnu/gcc-arm-none-eabi-7-2017-q4-major-win32/bin/../lib/gcc/arm-none-eabi/7.2.1/thumb/v7e-m/fpv4-sp/hard/crti.o
                0x08053a94                _fini
 .fini          0x08053a98        0x8 d:/gnu/gcc-arm-none-eabi-7-2017-q4-major-win32/bin/../lib/gcc/arm-none-eabi/7.2.1/thumb/v7e-m/fpv4-sp/hard/crtn.o
                0x08053aa0                . = ALIGN (0x4)
                0x08053aa0                _etext = .

.vfp11_veneer   0x08053aa0        0x0
 .vfp11_veneer  0x08053aa0        0x0 linker stubs

.v4_bx          0x08053aa0        0x0
 .v4_bx         0x08053aa0        0x0 linker stubs

.iplt           0x08053aa0        0x0
 .iplt          0x08053aa0        0x0 d:/gnu/gcc-arm-none-eabi-7-2017-q4-major-win32/bin/../lib/gcc/arm-none-eabi/7.2.1/thumb/v7e-m/fpv4-sp/hard/crtbegin.o

.rodata         0x08053aa0      0xb88
                0x08053aa0                . = ALIGN (0x4)
 *(.rodata)
 .rodata        0x08053aa0       0x8c C:\Users\alien\AppData\Local\Temp\ccodVkrc.ltrans0.ltrans.o
 .rodata        0x08053b2c       0x14 C:\Users\alien\AppData\Local\Temp\ccodVkrc.ltrans1.ltrans.o
 .rodata        0x08053b40        0xc d:/gnu/gcc-arm-none-eabi-7-2017-q4-major-win32/bin/../lib/gcc/arm-none-eabi/7.2.1/../../../../arm-none-eabi/lib/thumb/v7e-m/fpv4-sp/hard\libg_nano.a(lib_a-nano-vfscanf_i.o)
 *(.rodata*)
 .rodata.AHBPrescTable
                0x08053b4c       0x10 C:\Users\alien\AppData\Local\Temp\ccodVkrc.ltrans0.ltrans.o
 .rodata.Coil_Pin
                0x08053b5c       0x18 C:\Users\alien\AppData\Local\Temp\ccodVkrc.ltrans0.ltrans.o
 .rodata.Coil_Port
                0x08053b74       0x30 C:\Users\alien\AppData\Local\Temp\ccodVkrc.ltrans0.ltrans.o
 .rodata.ExecuteInternalCoilOutputOFF.str1.1
                0x08053ba4       0x39 C:\Users\alien\AppData\Local\Temp\ccodVkrc.ltrans0.ltrans.o
 .rodata.assert_failed.str1.1
                0x08053bdd       0x2d C:\Users\alien\AppData\Local\Temp\ccodVkrc.ltrans0.ltrans.o
 .rodata.ethbroadcast
                0x08053c0a        0x6 C:\Users\alien\AppData\Local\Temp\ccodVkrc.ltrans0.ltrans.o
 .rodata.lwip_cyclic_timers
                0x08053c10       0x20 C:\Users\alien\AppData\Local\Temp\ccodVkrc.ltrans0.ltrans.o
 .rodata.main.str1.1
                0x08053c30       0xfb C:\Users\alien\AppData\Local\Temp\ccodVkrc.ltrans0.ltrans.o
 *fill*         0x08053d2b        0x1 
 .rodata.memp_FRAG_PBUF
                0x08053d2c        0xc C:\Users\alien\AppData\Local\Temp\ccodVkrc.ltrans0.ltrans.o
 .rodata.memp_NETBUF
                0x08053d38        0xc C:\Users\alien\AppData\Local\Temp\ccodVkrc.ltrans0.ltrans.o
 .rodata.memp_NETCONN
                0x08053d44        0xc C:\Users\alien\AppData\Local\Temp\ccodVkrc.ltrans0.ltrans.o
 .rodata.memp_NETDB
                0x08053d50        0xc C:\Users\alien\AppData\Local\Temp\ccodVkrc.ltrans0.ltrans.o
 .rodata.memp_PBUF
                0x08053d5c        0xc C:\Users\alien\AppData\Local\Temp\ccodVkrc.ltrans0.ltrans.o
 .rodata.memp_PBUF_POOL
                0x08053d68        0xc C:\Users\alien\AppData\Local\Temp\ccodVkrc.ltrans0.ltrans.o
 .rodata.memp_REASSDATA
                0x08053d74        0xc C:\Users\alien\AppData\Local\Temp\ccodVkrc.ltrans0.ltrans.o
 .rodata.memp_SYS_TIMEOUT
                0x08053d80        0xc C:\Users\alien\AppData\Local\Temp\ccodVkrc.ltrans0.ltrans.o
 .rodata.memp_TCPIP_MSG_API
                0x08053d8c        0xc C:\Users\alien\AppData\Local\Temp\ccodVkrc.ltrans0.ltrans.o
 .rodata.memp_TCPIP_MSG_INPKT
                0x08053d98        0xc C:\Users\alien\AppData\Local\Temp\ccodVkrc.ltrans0.ltrans.o
 .rodata.memp_TCP_PCB
                0x08053da4        0xc C:\Users\alien\AppData\Local\Temp\ccodVkrc.ltrans0.ltrans.o
 .rodata.memp_TCP_PCB_LISTEN
                0x08053db0        0xc C:\Users\alien\AppData\Local\Temp\ccodVkrc.ltrans0.ltrans.o
 .rodata.memp_TCP_SEG
                0x08053dbc        0xc C:\Users\alien\AppData\Local\Temp\ccodVkrc.ltrans0.ltrans.o
 .rodata.memp_UDP_PCB
                0x08053dc8        0xc C:\Users\alien\AppData\Local\Temp\ccodVkrc.ltrans0.ltrans.o
 .rodata.memp_pools
                0x08053dd4       0x38 C:\Users\alien\AppData\Local\Temp\ccodVkrc.ltrans0.ltrans.o
 .rodata.tcp_backoff
                0x08053e0c        0xd C:\Users\alien\AppData\Local\Temp\ccodVkrc.ltrans0.ltrans.o
 .rodata.tcp_persist_backoff
                0x08053e19        0x7 C:\Users\alien\AppData\Local\Temp\ccodVkrc.ltrans0.ltrans.o
 .rodata.vTaskUserConfig.str1.1
                0x08053e20        0x9 C:\Users\alien\AppData\Local\Temp\ccodVkrc.ltrans0.ltrans.o
 *fill*         0x08053e29        0x3 
 .rodata.xFuncHandlers
                0x08053e2c       0x80 C:\Users\alien\AppData\Local\Temp\ccodVkrc.ltrans0.ltrans.o
 .rodata.xMasterFuncHandlers
                0x08053eac       0x80 C:\Users\alien\AppData\Local\Temp\ccodVkrc.ltrans0.ltrans.o
 .rodata.FLASH_If_Erase.str1.1
                0x08053f2c       0x3d C:\Users\alien\AppData\Local\Temp\ccodVkrc.ltrans1.ltrans.o
 .rodata.FLASH_If_Write.str1.1
                0x08053f69       0x3a C:\Users\alien\AppData\Local\Temp\ccodVkrc.ltrans1.ltrans.o
 .rodata.Thread_start.str1.1
                0x08053fa3       0x1e C:\Users\alien\AppData\Local\Temp\ccodVkrc.ltrans1.ltrans.o
 *fill*         0x08053fc1        0x3 
 .rodata.defaultConnectionParameters
                0x08053fc4       0x30 C:\Users\alien\AppData\Local\Temp\ccodVkrc.ltrans1.ltrans.o
 .rodata.serverThread.str1.1
                0x08053ff4       0x25 C:\Users\alien\AppData\Local\Temp\ccodVkrc.ltrans1.ltrans.o
 .rodata.vTaskCanNetworkTx.lto_priv.362.str1.1
                0x08054019       0x38 C:\Users\alien\AppData\Local\Temp\ccodVkrc.ltrans1.ltrans.o
 .rodata.vTaskIEC104.lto_priv.360.str1.1
                0x08054051       0x19 C:\Users\alien\AppData\Local\Temp\ccodVkrc.ltrans1.ltrans.o
 .rodata.APBPrescTable
                0x0805406a        0x8 C:\Users\alien\AppData\Local\Temp\ccodVkrc.ltrans2.ltrans.o
 .rodata.CSWTCH.8
                0x08054072        0x8 C:\Users\alien\AppData\Local\Temp\ccodVkrc.ltrans2.ltrans.o
 .rodata.HAL_GPIO_Init.str1.1
                0x0805407a       0x39 C:\Users\alien\AppData\Local\Temp\ccodVkrc.ltrans2.ltrans.o
 .rodata.HAL_RTC_SetTime.constprop.72.str1.1
                0x0805407a       0x38 C:\Users\alien\AppData\Local\Temp\ccodVkrc.ltrans2.ltrans.o
 .rodata.HAL_TIM_Base_Stop_IT.str1.1
                0x080540b2       0x38 C:\Users\alien\AppData\Local\Temp\ccodVkrc.ltrans2.ltrans.o
 .rodata.aucCRCHi
                0x080540ea      0x100 C:\Users\alien\AppData\Local\Temp\ccodVkrc.ltrans2.ltrans.o
 .rodata.aucCRCLo
                0x080541ea      0x100 C:\Users\alien\AppData\Local\Temp\ccodVkrc.ltrans2.ltrans.o
 .rodata.ethzero
                0x080542ea        0x6 C:\Users\alien\AppData\Local\Temp\ccodVkrc.ltrans2.ltrans.o
                0x080542ea                ethzero
 .rodata.ip_addr_any
                0x080542f0        0x4 C:\Users\alien\AppData\Local\Temp\ccodVkrc.ltrans2.ltrans.o
                0x080542f0                ip_addr_any
 .rodata.tcp_pcb_lists
                0x080542f4       0x10 C:\Users\alien\AppData\Local\Temp\ccodVkrc.ltrans2.ltrans.o
                0x080542f4                tcp_pcb_lists
 .rodata.xMBMasterRTUTransmitFSM.str1.1
                0x08054304       0x23 C:\Users\alien\AppData\Local\Temp\ccodVkrc.ltrans2.ltrans.o
 .rodata.xMBPortEventPost.str1.1
                0x08054327        0x7 C:\Users\alien\AppData\Local\Temp\ccodVkrc.ltrans2.ltrans.o
 .rodata.xMBRTUReceiveFSM.str1.1
                0x0805432e       0x21 C:\Users\alien\AppData\Local\Temp\ccodVkrc.ltrans2.ltrans.o
 .rodata.HAL_ETH_WritePHYRegister.constprop.132.str1.1
                0x0805434f       0x38 C:\Users\alien\AppData\Local\Temp\ccodVkrc.ltrans3.ltrans.o
 .rodata.HAL_TIM_Base_Init.constprop.75.str1.1
                0x0805434f       0x38 C:\Users\alien\AppData\Local\Temp\ccodVkrc.ltrans3.ltrans.o
 .rodata.HAL_UART_Init.constprop.105.str1.1
                0x0805434f       0x39 C:\Users\alien\AppData\Local\Temp\ccodVkrc.ltrans3.ltrans.o
 .rodata.err_to_errno_table.lto_priv.318
                0x08054388       0x44 C:\Users\alien\AppData\Local\Temp\ccodVkrc.ltrans3.ltrans.o
                0x08054388                err_to_errno_table.lto_priv.318
 .rodata._global_impure_ptr
                0x080543cc        0x4 d:/gnu/gcc-arm-none-eabi-7-2017-q4-major-win32/bin/../lib/gcc/arm-none-eabi/7.2.1/../../../../arm-none-eabi/lib/thumb/v7e-m/fpv4-sp/hard\libg_nano.a(lib_a-impure.o)
                0x080543cc                _global_impure_ptr
 .rodata.__month_lengths
                0x080543d0       0x60 d:/gnu/gcc-arm-none-eabi-7-2017-q4-major-win32/bin/../lib/gcc/arm-none-eabi/7.2.1/../../../../arm-none-eabi/lib/thumb/v7e-m/fpv4-sp/hard\libg_nano.a(lib_a-month_lengths.o)
                0x080543d0                __month_lengths
 .rodata._tzset_unlocked_r.str1.1
                0x08054430       0x3c d:/gnu/gcc-arm-none-eabi-7-2017-q4-major-win32/bin/../lib/gcc/arm-none-eabi/7.2.1/../../../../arm-none-eabi/lib/thumb/v7e-m/fpv4-sp/hard\libg_nano.a(lib_a-tzset_r.o)
                                 0x4e (size before relaxing)
 .rodata.str1.1
                0x0805446c        0x4 d:/gnu/gcc-arm-none-eabi-7-2017-q4-major-win32/bin/../lib/gcc/arm-none-eabi/7.2.1/../../../../arm-none-eabi/lib/thumb/v7e-m/fpv4-sp/hard\libg_nano.a(lib_a-tzvars.o)
 .rodata.__sf_fake_stderr
                0x0805446c       0x20 d:/gnu/gcc-arm-none-eabi-7-2017-q4-major-win32/bin/../lib/gcc/arm-none-eabi/7.2.1/../../../../arm-none-eabi/lib/thumb/v7e-m/fpv4-sp/hard\libg_nano.a(lib_a-findfp.o)
                0x0805446c                __sf_fake_stderr
 .rodata.__sf_fake_stdin
                0x0805448c       0x20 d:/gnu/gcc-arm-none-eabi-7-2017-q4-major-win32/bin/../lib/gcc/arm-none-eabi/7.2.1/../../../../arm-none-eabi/lib/thumb/v7e-m/fpv4-sp/hard\libg_nano.a(lib_a-findfp.o)
                0x0805448c                __sf_fake_stdin
 .rodata.__sf_fake_stdout
                0x080544ac       0x20 d:/gnu/gcc-arm-none-eabi-7-2017-q4-major-win32/bin/../lib/gcc/arm-none-eabi/7.2.1/../../../../arm-none-eabi/lib/thumb/v7e-m/fpv4-sp/hard\libg_nano.a(lib_a-findfp.o)
                0x080544ac                __sf_fake_stdout
 .rodata._setlocale_r.str1.1
                0x080544cc        0x8 d:/gnu/gcc-arm-none-eabi-7-2017-q4-major-win32/bin/../lib/gcc/arm-none-eabi/7.2.1/../../../../arm-none-eabi/lib/thumb/v7e-m/fpv4-sp/hard\libg_nano.a(lib_a-locale.o)
                                  0x9 (size before relaxing)
 .rodata.str1.1
                0x080544d4        0x2 d:/gnu/gcc-arm-none-eabi-7-2017-q4-major-win32/bin/../lib/gcc/arm-none-eabi/7.2.1/../../../../arm-none-eabi/lib/thumb/v7e-m/fpv4-sp/hard\libg_nano.a(lib_a-locale.o)
 .rodata._vfprintf_r.str1.1
                0x080544d6       0x11 d:/gnu/gcc-arm-none-eabi-7-2017-q4-major-win32/bin/../lib/gcc/arm-none-eabi/7.2.1/../../../../arm-none-eabi/lib/thumb/v7e-m/fpv4-sp/hard\libg_nano.a(lib_a-nano-vfprintf.o)
 .rodata._printf_i.str1.1
                0x080544e7       0x22 d:/gnu/gcc-arm-none-eabi-7-2017-q4-major-win32/bin/../lib/gcc/arm-none-eabi/7.2.1/../../../../arm-none-eabi/lib/thumb/v7e-m/fpv4-sp/hard\libg_nano.a(lib_a-nano-vfprintf_i.o)
 .rodata._ctype_
                0x08054509      0x101 d:/gnu/gcc-arm-none-eabi-7-2017-q4-major-win32/bin/../lib/gcc/arm-none-eabi/7.2.1/../../../../arm-none-eabi/lib/thumb/v7e-m/fpv4-sp/hard\libg_nano.a(lib_a-ctype_.o)
                0x08054509                _ctype_
 .rodata.__ssvfscanf_r.str1.1
                0x0805460a        0x4 d:/gnu/gcc-arm-none-eabi-7-2017-q4-major-win32/bin/../lib/gcc/arm-none-eabi/7.2.1/../../../../arm-none-eabi/lib/thumb/v7e-m/fpv4-sp/hard\libg_nano.a(lib_a-nano-svfscanf.o)
 .rodata._scanf_i.str1.1
                0x0805460a       0x12 d:/gnu/gcc-arm-none-eabi-7-2017-q4-major-win32/bin/../lib/gcc/arm-none-eabi/7.2.1/../../../../arm-none-eabi/lib/thumb/v7e-m/fpv4-sp/hard\libg_nano.a(lib_a-nano-vfscanf_i.o)
 .rodata.str1.1
                0x0805461c        0x9 d:/gnu/gcc-arm-none-eabi-7-2017-q4-major-win32/bin/../lib/gcc/arm-none-eabi/7.2.1/../../../../arm-none-eabi/lib/thumb/v7e-m/fpv4-sp/hard\libg_nano.a(lib_a-nano-vfscanf_i.o)
                0x08054628                . = ALIGN (0x4)
 *fill*         0x08054625        0x3 

.ARM.extab
 *(.ARM.extab* .gnu.linkonce.armextab.*)

.ARM            0x08054628        0x8
                0x08054628                __exidx_start = .
 *(.ARM.exidx*)
 .ARM.exidx     0x08054628        0x8 d:/gnu/gcc-arm-none-eabi-7-2017-q4-major-win32/bin/../lib/gcc/arm-none-eabi/7.2.1/thumb/v7e-m/fpv4-sp/hard\libgcc.a(_udivmoddi4.o)
                0x08054630                __exidx_end = .

.rel.dyn        0x08054630        0x0
 .rel.iplt      0x08054630        0x0 d:/gnu/gcc-arm-none-eabi-7-2017-q4-major-win32/bin/../lib/gcc/arm-none-eabi/7.2.1/thumb/v7e-m/fpv4-sp/hard/crtbegin.o

.preinit_array  0x08054630        0x0
                0x08054630                PROVIDE (__preinit_array_start, .)
 *(.preinit_array*)
                0x08054630                PROVIDE (__preinit_array_end, .)

.init_array     0x08054630        0x4
                0x08054630                PROVIDE (__init_array_start, .)
 *(SORT_BY_NAME(.init_array.*))
 *(.init_array*)
 .init_array    0x08054630        0x4 d:/gnu/gcc-arm-none-eabi-7-2017-q4-major-win32/bin/../lib/gcc/arm-none-eabi/7.2.1/thumb/v7e-m/fpv4-sp/hard/crtbegin.o
                0x08054634                PROVIDE (__init_array_end, .)

.fini_array     0x08054634        0x4
                [!provide]                PROVIDE (__fini_array_start, .)
 *(SORT_BY_NAME(.fini_array.*))
 *(.fini_array*)
 .fini_array    0x08054634        0x4 d:/gnu/gcc-arm-none-eabi-7-2017-q4-major-win32/bin/../lib/gcc/arm-none-eabi/7.2.1/thumb/v7e-m/fpv4-sp/hard/crtbegin.o
                [!provide]                PROVIDE (__fini_array_end, .)
                0x08054638                _sidata = LOADADDR (.data)

.data           0x20000000      0x448 load address 0x08054638
                0x20000000                . = ALIGN (0x4)
                0x20000000                _sdata = .
 *(.data)
 *(.data*)
 .data.eMBState.lto_priv.332
                0x20000000        0x1 C:\Users\alien\AppData\Local\Temp\ccodVkrc.ltrans0.ltrans.o
 .data.eMBState.lto_priv.333
                0x20000001        0x1 C:\Users\alien\AppData\Local\Temp\ccodVkrc.ltrans0.ltrans.o
 *fill*         0x20000002        0x2 
 .data.iss.10692
                0x20000004        0x4 C:\Users\alien\AppData\Local\Temp\ccodVkrc.ltrans0.ltrans.o
 .data.STARTDT_CON_MSG
                0x20000008        0x6 C:\Users\alien\AppData\Local\Temp\ccodVkrc.ltrans1.ltrans.o
 .data.STOPDT_CON_MSG
                0x2000000e        0x6 C:\Users\alien\AppData\Local\Temp\ccodVkrc.ltrans1.ltrans.o
 .data.TESTFR_ACT_MSG
                0x20000014        0x6 C:\Users\alien\AppData\Local\Temp\ccodVkrc.ltrans1.ltrans.o
 .data.TESTFR_CON_MSG
                0x2000001a        0x6 C:\Users\alien\AppData\Local\Temp\ccodVkrc.ltrans1.ltrans.o
 .data.asduFrameVFT
                0x20000020       0x1c C:\Users\alien\AppData\Local\Temp\ccodVkrc.ltrans1.ltrans.o
 .data.bufferFrameVFT
                0x2000003c       0x1c C:\Users\alien\AppData\Local\Temp\ccodVkrc.ltrans1.ltrans.o
 .data.tcp_port
                0x20000058        0x2 C:\Users\alien\AppData\Local\Temp\ccodVkrc.ltrans2.ltrans.o
 .data.udp_port
                0x2000005a        0x2 C:\Users\alien\AppData\Local\Temp\ccodVkrc.ltrans2.ltrans.o
 .data.uxCriticalNesting.lto_priv.344
                0x2000005c        0x4 C:\Users\alien\AppData\Local\Temp\ccodVkrc.ltrans2.ltrans.o
                0x2000005c                uxCriticalNesting.lto_priv.344
 .data.DelayAcquisitionCommandVFT
                0x20000060        0x8 C:\Users\alien\AppData\Local\Temp\ccodVkrc.ltrans3.ltrans.o
 .data.EndOfInitializationVFT
                0x20000068        0x8 C:\Users\alien\AppData\Local\Temp\ccodVkrc.ltrans3.ltrans.o
 .data.SystemCoreClock
                0x20000070        0x4 C:\Users\alien\AppData\Local\Temp\ccodVkrc.ltrans3.ltrans.o
                0x20000070                SystemCoreClock
 .data.bitString32VFT
                0x20000074        0x8 C:\Users\alien\AppData\Local\Temp\ccodVkrc.ltrans3.ltrans.o
 .data.bitstring32CommandVFT
                0x2000007c        0x8 C:\Users\alien\AppData\Local\Temp\ccodVkrc.ltrans3.ltrans.o
 .data.bitstring32CommandWithCP56Time2aVFT
                0x20000084        0x8 C:\Users\alien\AppData\Local\Temp\ccodVkrc.ltrans3.ltrans.o
 .data.bitstring32WithCP24Time2aVFT
                0x2000008c        0x8 C:\Users\alien\AppData\Local\Temp\ccodVkrc.ltrans3.ltrans.o
 .data.bitstring32WithCP56Time2aVFT
                0x20000094        0x8 C:\Users\alien\AppData\Local\Temp\ccodVkrc.ltrans3.ltrans.o
 .data.clockSynchronizationCommandVFT
                0x2000009c        0x8 C:\Users\alien\AppData\Local\Temp\ccodVkrc.ltrans3.ltrans.o
 .data.counterInterrogationCommandVFT
                0x200000a4        0x8 C:\Users\alien\AppData\Local\Temp\ccodVkrc.ltrans3.ltrans.o
 .data.doubleCommandVFT
                0x200000ac        0x8 C:\Users\alien\AppData\Local\Temp\ccodVkrc.ltrans3.ltrans.o
 .data.doubleCommandWithCP56Time2aVFT
                0x200000b4        0x8 C:\Users\alien\AppData\Local\Temp\ccodVkrc.ltrans3.ltrans.o
 .data.doublePointInformationVFT
                0x200000bc        0x8 C:\Users\alien\AppData\Local\Temp\ccodVkrc.ltrans3.ltrans.o
 .data.doublePointWithCP24Time2aVFT
                0x200000c4        0x8 C:\Users\alien\AppData\Local\Temp\ccodVkrc.ltrans3.ltrans.o
 .data.doublePointWithCP56Time2aVFT
                0x200000cc        0x8 C:\Users\alien\AppData\Local\Temp\ccodVkrc.ltrans3.ltrans.o
                0x200000cc                doublePointWithCP56Time2aVFT
 .data.eventOfProtectionEquipmentVFT
                0x200000d4        0x8 C:\Users\alien\AppData\Local\Temp\ccodVkrc.ltrans3.ltrans.o
 .data.eventOfProtectionEquipmentWithCP56Time2aVFT
                0x200000dc        0x8 C:\Users\alien\AppData\Local\Temp\ccodVkrc.ltrans3.ltrans.o
 .data.integratedTotalsVFT
                0x200000e4        0x8 C:\Users\alien\AppData\Local\Temp\ccodVkrc.ltrans3.ltrans.o
 .data.integratedTotalsWithCP24Time2aVFT
                0x200000ec        0x8 C:\Users\alien\AppData\Local\Temp\ccodVkrc.ltrans3.ltrans.o
 .data.integratedTotalsWithCP56Time2aVFT
                0x200000f4        0x8 C:\Users\alien\AppData\Local\Temp\ccodVkrc.ltrans3.ltrans.o
 .data.interrogationCommandVFT
                0x200000fc        0x8 C:\Users\alien\AppData\Local\Temp\ccodVkrc.ltrans3.ltrans.o
 .data.measuredValueNormalizedVFT
                0x20000104        0x8 C:\Users\alien\AppData\Local\Temp\ccodVkrc.ltrans3.ltrans.o
 .data.measuredValueNormalizedWithCP24Time2aVFT
                0x2000010c        0x8 C:\Users\alien\AppData\Local\Temp\ccodVkrc.ltrans3.ltrans.o
 .data.measuredValueNormalizedWithCP56Time2aVFT
                0x20000114        0x8 C:\Users\alien\AppData\Local\Temp\ccodVkrc.ltrans3.ltrans.o
 .data.measuredValueNormalizedWithoutQualityVFT
                0x2000011c        0x8 C:\Users\alien\AppData\Local\Temp\ccodVkrc.ltrans3.ltrans.o
 .data.measuredValueScaledVFT
                0x20000124        0x8 C:\Users\alien\AppData\Local\Temp\ccodVkrc.ltrans3.ltrans.o
 .data.measuredValueScaledWithCP24Time2aVFT
                0x2000012c        0x8 C:\Users\alien\AppData\Local\Temp\ccodVkrc.ltrans3.ltrans.o
 .data.measuredValueScaledWithCP56Time2aVFT
                0x20000134        0x8 C:\Users\alien\AppData\Local\Temp\ccodVkrc.ltrans3.ltrans.o
 .data.measuredValueShortVFT
                0x2000013c        0x8 C:\Users\alien\AppData\Local\Temp\ccodVkrc.ltrans3.ltrans.o
                0x2000013c                measuredValueShortVFT
 .data.measuredValueShortWithCP24Time2aVFT
                0x20000144        0x8 C:\Users\alien\AppData\Local\Temp\ccodVkrc.ltrans3.ltrans.o
 .data.measuredValueShortWithCP56Time2aVFT
                0x2000014c        0x8 C:\Users\alien\AppData\Local\Temp\ccodVkrc.ltrans3.ltrans.o
 .data.packedOutputCircuitInfoVFT
                0x20000154        0x8 C:\Users\alien\AppData\Local\Temp\ccodVkrc.ltrans3.ltrans.o
 .data.packedOutputCircuitInfoWithCP56Time2aVFT
                0x2000015c        0x8 C:\Users\alien\AppData\Local\Temp\ccodVkrc.ltrans3.ltrans.o
 .data.packedSinglePointWithSCDVFT
                0x20000164        0x8 C:\Users\alien\AppData\Local\Temp\ccodVkrc.ltrans3.ltrans.o
 .data.packedStartEventsOfProtectionEquipmentVFT
                0x2000016c        0x8 C:\Users\alien\AppData\Local\Temp\ccodVkrc.ltrans3.ltrans.o
 .data.packedStartEventsOfProtectionEquipmentWithCP56Time2aVFT
                0x20000174        0x8 C:\Users\alien\AppData\Local\Temp\ccodVkrc.ltrans3.ltrans.o
 .data.parameterActivationVFT
                0x2000017c        0x8 C:\Users\alien\AppData\Local\Temp\ccodVkrc.ltrans3.ltrans.o
 .data.readCommandVFT
                0x20000184        0x8 C:\Users\alien\AppData\Local\Temp\ccodVkrc.ltrans3.ltrans.o
 .data.resetProcessCommandVFT
                0x2000018c        0x8 C:\Users\alien\AppData\Local\Temp\ccodVkrc.ltrans3.ltrans.o
 .data.setpointCommandNormalizedVFT
                0x20000194        0x8 C:\Users\alien\AppData\Local\Temp\ccodVkrc.ltrans3.ltrans.o
 .data.setpointCommandNormalizedWithCP56Time2aVFT
                0x2000019c        0x8 C:\Users\alien\AppData\Local\Temp\ccodVkrc.ltrans3.ltrans.o
 .data.setpointCommandScaledVFT
                0x200001a4        0x8 C:\Users\alien\AppData\Local\Temp\ccodVkrc.ltrans3.ltrans.o
 .data.setpointCommandScaledWithCP56Time2aVFT
                0x200001ac        0x8 C:\Users\alien\AppData\Local\Temp\ccodVkrc.ltrans3.ltrans.o
 .data.setpointCommandShortVFT
                0x200001b4        0x8 C:\Users\alien\AppData\Local\Temp\ccodVkrc.ltrans3.ltrans.o
 .data.setpointCommandShortWithCP56Time2aVFT
                0x200001bc        0x8 C:\Users\alien\AppData\Local\Temp\ccodVkrc.ltrans3.ltrans.o
 .data.singleCommandVFT
                0x200001c4        0x8 C:\Users\alien\AppData\Local\Temp\ccodVkrc.ltrans3.ltrans.o
 .data.singleCommandWithCP56Time2aVFT
                0x200001cc        0x8 C:\Users\alien\AppData\Local\Temp\ccodVkrc.ltrans3.ltrans.o
 .data.singlePointInformationVFT
                0x200001d4        0x8 C:\Users\alien\AppData\Local\Temp\ccodVkrc.ltrans3.ltrans.o
 .data.singlePointWithCP24Time2aVFT
                0x200001dc        0x8 C:\Users\alien\AppData\Local\Temp\ccodVkrc.ltrans3.ltrans.o
 .data.singlePointWithCP56Time2aVFT
                0x200001e4        0x8 C:\Users\alien\AppData\Local\Temp\ccodVkrc.ltrans3.ltrans.o
                0x200001e4                singlePointWithCP56Time2aVFT
 .data.stepCommandVFT
                0x200001ec        0x8 C:\Users\alien\AppData\Local\Temp\ccodVkrc.ltrans3.ltrans.o
 .data.stepCommandWithCP56Time2aVFT
                0x200001f4        0x8 C:\Users\alien\AppData\Local\Temp\ccodVkrc.ltrans3.ltrans.o
 .data.stepPositionInformationVFT
                0x200001fc        0x8 C:\Users\alien\AppData\Local\Temp\ccodVkrc.ltrans3.ltrans.o
 .data.stepPositionWithCP24Time2aVFT
                0x20000204        0x8 C:\Users\alien\AppData\Local\Temp\ccodVkrc.ltrans3.ltrans.o
 .data.stepPositionWithCP56Time2aVFT
                0x2000020c        0x8 C:\Users\alien\AppData\Local\Temp\ccodVkrc.ltrans3.ltrans.o
 .data._impure_ptr
                0x20000214        0x4 d:/gnu/gcc-arm-none-eabi-7-2017-q4-major-win32/bin/../lib/gcc/arm-none-eabi/7.2.1/../../../../arm-none-eabi/lib/thumb/v7e-m/fpv4-sp/hard\libg_nano.a(lib_a-impure.o)
                0x20000214                _impure_ptr
 .data.impure_data
                0x20000218       0x60 d:/gnu/gcc-arm-none-eabi-7-2017-q4-major-win32/bin/../lib/gcc/arm-none-eabi/7.2.1/../../../../arm-none-eabi/lib/thumb/v7e-m/fpv4-sp/hard\libg_nano.a(lib_a-impure.o)
 .data._tzname  0x20000278        0x8 d:/gnu/gcc-arm-none-eabi-7-2017-q4-major-win32/bin/../lib/gcc/arm-none-eabi/7.2.1/../../../../arm-none-eabi/lib/thumb/v7e-m/fpv4-sp/hard\libg_nano.a(lib_a-tzvars.o)
                0x20000278                _tzname
 .data.tzinfo   0x20000280       0x58 d:/gnu/gcc-arm-none-eabi-7-2017-q4-major-win32/bin/../lib/gcc/arm-none-eabi/7.2.1/../../../../arm-none-eabi/lib/thumb/v7e-m/fpv4-sp/hard\libg_nano.a(lib_a-gettzinfo.o)
 .data.__global_locale
                0x200002d8      0x16c d:/gnu/gcc-arm-none-eabi-7-2017-q4-major-win32/bin/../lib/gcc/arm-none-eabi/7.2.1/../../../../arm-none-eabi/lib/thumb/v7e-m/fpv4-sp/hard\libg_nano.a(lib_a-locale.o)
                0x200002d8                __global_locale
 .data.environ  0x20000444        0x4 d:/gnu/gcc-arm-none-eabi-7-2017-q4-major-win32/bin/../lib/gcc/arm-none-eabi/7.2.1/../../../../arm-none-eabi/lib/thumb/v7e-m/fpv4-sp/hard\libg_nano.a(lib_a-environ.o)
                0x20000444                environ
                0x20000448                . = ALIGN (0x4)
                0x20000448                _edata = .
                0x08054a80                _siccmram = LOADADDR (.ccmram)

.igot.plt       0x20000448        0x0 load address 0x08054a80
 .igot.plt      0x20000448        0x0 d:/gnu/gcc-arm-none-eabi-7-2017-q4-major-win32/bin/../lib/gcc/arm-none-eabi/7.2.1/thumb/v7e-m/fpv4-sp/hard/crtbegin.o

.ccmram         0x10000000    0x10000 load address 0x08054a80
                0x10000000                . = ALIGN (0x4)
                0x10000000                _sccmram = .
 *(.ccmram)
 .ccmram        0x10000000    0x10000 C:\Users\alien\AppData\Local\Temp\ccodVkrc.ltrans2.ltrans.o
 *(.ccmram*)
                0x10010000                . = ALIGN (0x4)
                0x10010000                _eccmram = .
                0x10010000                . = ALIGN (0x4)

.bss            0x20000448    0x115f0
                0x20000448                _sbss = .
                0x20000448                __bss_start__ = _sbss
 *(.bss)
 .bss           0x20000448       0x1c d:/gnu/gcc-arm-none-eabi-7-2017-q4-major-win32/bin/../lib/gcc/arm-none-eabi/7.2.1/thumb/v7e-m/fpv4-sp/hard/crtbegin.o
 *(.bss*)
 .bss.DMARxDscrTab
                0x20000464       0x80 C:\Users\alien\AppData\Local\Temp\ccodVkrc.ltrans0.ltrans.o
 .bss.DMATxDscrTab
                0x200004e4       0x80 C:\Users\alien\AppData\Local\Temp\ccodVkrc.ltrans0.ltrans.o
 .bss.DTU_COM_RX_Handle
                0x20000564        0x4 C:\Users\alien\AppData\Local\Temp\ccodVkrc.ltrans0.ltrans.o
 .bss.DTU_TCP_RX_Handle
                0x20000568        0x4 C:\Users\alien\AppData\Local\Temp\ccodVkrc.ltrans0.ltrans.o
 .bss.Flash_Write_Address
                0x2000056c        0x4 C:\Users\alien\AppData\Local\Temp\ccodVkrc.ltrans0.ltrans.o
 .bss.InternalDiscreteInfo
                0x20000570      0x100 C:\Users\alien\AppData\Local\Temp\ccodVkrc.ltrans0.ltrans.o
                0x20000570                InternalDiscreteInfo
 .bss.JumpToApplication
                0x20000670        0x4 C:\Users\alien\AppData\Local\Temp\ccodVkrc.ltrans0.ltrans.o
 .bss.RS485Network
                0x20000674       0x10 C:\Users\alien\AppData\Local\Temp\ccodVkrc.ltrans0.ltrans.o
 .bss.RawEventQueue
                0x20000684        0x4 C:\Users\alien\AppData\Local\Temp\ccodVkrc.ltrans0.ltrans.o
                0x20000684                RawEventQueue
 .bss.Rx_Buff   0x20000688     0x17d0 C:\Users\alien\AppData\Local\Temp\ccodVkrc.ltrans0.ltrans.o
 .bss.SemModbus
                0x20001e58        0x4 C:\Users\alien\AppData\Local\Temp\ccodVkrc.ltrans0.ltrans.o
 .bss.SystemEnv
                0x20001e5c        0xc C:\Users\alien\AppData\Local\Temp\ccodVkrc.ltrans0.ltrans.o
                0x20001e5c                SystemEnv
 .bss.TickInMs  0x20001e68        0x8 C:\Users\alien\AppData\Local\Temp\ccodVkrc.ltrans0.ltrans.o
                0x20001e68                TickInMs
 .bss.Tx_Buff   0x20001e70     0x17d0 C:\Users\alien\AppData\Local\Temp\ccodVkrc.ltrans0.ltrans.o
 .bss.UID       0x20003640        0xc C:\Users\alien\AppData\Local\Temp\ccodVkrc.ltrans0.ltrans.o
 .bss.ackno     0x2000364c        0x4 C:\Users\alien\AppData\Local\Temp\ccodVkrc.ltrans0.ltrans.o
 .bss.args      0x20003650        0x4 C:\Users\alien\AppData\Local\Temp\ccodVkrc.ltrans0.ltrans.o
 .bss.arp_table
                0x20003654       0xf0 C:\Users\alien\AppData\Local\Temp\ccodVkrc.ltrans0.ltrans.o
 .bss.conn      0x20003744        0x4 C:\Users\alien\AppData\Local\Temp\ccodVkrc.ltrans0.ltrans.o
 .bss.conn_data
                0x20003748        0x4 C:\Users\alien\AppData\Local\Temp\ccodVkrc.ltrans0.ltrans.o
 .bss.eException.10368
                0x2000374c        0x1 C:\Users\alien\AppData\Local\Temp\ccodVkrc.ltrans0.ltrans.o
 .bss.eException.10510
                0x2000374d        0x1 C:\Users\alien\AppData\Local\Temp\ccodVkrc.ltrans0.ltrans.o
 .bss.etharp_cached_entry
                0x2000374e        0x1 C:\Users\alien\AppData\Local\Temp\ccodVkrc.ltrans0.ltrans.o
 .bss.flags     0x2000374f        0x1 C:\Users\alien\AppData\Local\Temp\ccodVkrc.ltrans0.ltrans.o
 .bss.handle    0x20003750        0x4 C:\Users\alien\AppData\Local\Temp\ccodVkrc.ltrans0.ltrans.o
 .bss.hcrc      0x20003754        0x8 C:\Users\alien\AppData\Local\Temp\ccodVkrc.ltrans0.ltrans.o
 .bss.heap_end.10326
                0x2000375c        0x4 C:\Users\alien\AppData\Local\Temp\ccodVkrc.ltrans0.ltrans.o
 .bss.huart5    0x20003760       0x40 C:\Users\alien\AppData\Local\Temp\ccodVkrc.ltrans0.ltrans.o
 .bss.ip_data   0x200037a0       0x18 C:\Users\alien\AppData\Local\Temp\ccodVkrc.ltrans0.ltrans.o
 .bss.ip_id     0x200037b8        0x2 C:\Users\alien\AppData\Local\Temp\ccodVkrc.ltrans0.ltrans.o
 .bss.ip_reass_pbufcount
                0x200037ba        0x2 C:\Users\alien\AppData\Local\Temp\ccodVkrc.ltrans0.ltrans.o
 .bss.lfree     0x200037bc        0x4 C:\Users\alien\AppData\Local\Temp\ccodVkrc.ltrans0.ltrans.o
 .bss.mem_mutex
                0x200037c0        0x4 C:\Users\alien\AppData\Local\Temp\ccodVkrc.ltrans0.ltrans.o
 .bss.memp_memory_FRAG_PBUF_base
                0x200037c4      0x16b C:\Users\alien\AppData\Local\Temp\ccodVkrc.ltrans0.ltrans.o
 .bss.memp_memory_NETBUF_base
                0x2000392f      0x403 C:\Users\alien\AppData\Local\Temp\ccodVkrc.ltrans0.ltrans.o
 .bss.memp_memory_NETCONN_base
                0x20003d32      0x273 C:\Users\alien\AppData\Local\Temp\ccodVkrc.ltrans0.ltrans.o
 .bss.memp_memory_NETDB_base
                0x20003fa5      0x137 C:\Users\alien\AppData\Local\Temp\ccodVkrc.ltrans0.ltrans.o
 .bss.memp_memory_PBUF_POOL_base
                0x200040dc     0x4c03 C:\Users\alien\AppData\Local\Temp\ccodVkrc.ltrans0.ltrans.o
 .bss.memp_memory_PBUF_base
                0x20008cdf      0x103 C:\Users\alien\AppData\Local\Temp\ccodVkrc.ltrans0.ltrans.o
 .bss.memp_memory_REASSDATA_base
                0x20008de2       0xa3 C:\Users\alien\AppData\Local\Temp\ccodVkrc.ltrans0.ltrans.o
 .bss.memp_memory_SYS_TIMEOUT_base
                0x20008e85       0x43 C:\Users\alien\AppData\Local\Temp\ccodVkrc.ltrans0.ltrans.o
 .bss.memp_memory_TCPIP_MSG_API_base
                0x20008ec8       0x83 C:\Users\alien\AppData\Local\Temp\ccodVkrc.ltrans0.ltrans.o
 .bss.memp_memory_TCPIP_MSG_INPKT_base
                0x20008f4b       0x83 C:\Users\alien\AppData\Local\Temp\ccodVkrc.ltrans0.ltrans.o
 .bss.memp_memory_TCP_PCB_LISTEN_base
                0x20008fce       0xe3 C:\Users\alien\AppData\Local\Temp\ccodVkrc.ltrans0.ltrans.o
 .bss.memp_memory_TCP_PCB_base
                0x200090b1      0x4c3 C:\Users\alien\AppData\Local\Temp\ccodVkrc.ltrans0.ltrans.o
 .bss.memp_memory_TCP_SEG_base
                0x20009574      0x103 C:\Users\alien\AppData\Local\Temp\ccodVkrc.ltrans0.ltrans.o
 .bss.memp_memory_UDP_PCB_base
                0x20009677       0x83 C:\Users\alien\AppData\Local\Temp\ccodVkrc.ltrans0.ltrans.o
 *fill*         0x200096fa        0x2 
 .bss.memp_tab_FRAG_PBUF
                0x200096fc        0x4 C:\Users\alien\AppData\Local\Temp\ccodVkrc.ltrans0.ltrans.o
 .bss.memp_tab_NETBUF
                0x20009700        0x4 C:\Users\alien\AppData\Local\Temp\ccodVkrc.ltrans0.ltrans.o
 .bss.memp_tab_NETCONN
                0x20009704        0x4 C:\Users\alien\AppData\Local\Temp\ccodVkrc.ltrans0.ltrans.o
 .bss.memp_tab_NETDB
                0x20009708        0x4 C:\Users\alien\AppData\Local\Temp\ccodVkrc.ltrans0.ltrans.o
 .bss.memp_tab_PBUF
                0x2000970c        0x4 C:\Users\alien\AppData\Local\Temp\ccodVkrc.ltrans0.ltrans.o
 .bss.memp_tab_PBUF_POOL
                0x20009710        0x4 C:\Users\alien\AppData\Local\Temp\ccodVkrc.ltrans0.ltrans.o
 .bss.memp_tab_REASSDATA
                0x20009714        0x4 C:\Users\alien\AppData\Local\Temp\ccodVkrc.ltrans0.ltrans.o
 .bss.memp_tab_SYS_TIMEOUT
                0x20009718        0x4 C:\Users\alien\AppData\Local\Temp\ccodVkrc.ltrans0.ltrans.o
 .bss.memp_tab_TCPIP_MSG_API
                0x2000971c        0x4 C:\Users\alien\AppData\Local\Temp\ccodVkrc.ltrans0.ltrans.o
 .bss.memp_tab_TCPIP_MSG_INPKT
                0x20009720        0x4 C:\Users\alien\AppData\Local\Temp\ccodVkrc.ltrans0.ltrans.o
 .bss.memp_tab_TCP_PCB
                0x20009724        0x4 C:\Users\alien\AppData\Local\Temp\ccodVkrc.ltrans0.ltrans.o
 .bss.memp_tab_TCP_PCB_LISTEN
                0x20009728        0x4 C:\Users\alien\AppData\Local\Temp\ccodVkrc.ltrans0.ltrans.o
 .bss.memp_tab_TCP_SEG
                0x2000972c        0x4 C:\Users\alien\AppData\Local\Temp\ccodVkrc.ltrans0.ltrans.o
 .bss.memp_tab_UDP_PCB
                0x20009730        0x4 C:\Users\alien\AppData\Local\Temp\ccodVkrc.ltrans0.ltrans.o
 .bss.netif_default
                0x20009734        0x4 C:\Users\alien\AppData\Local\Temp\ccodVkrc.ltrans0.ltrans.o
 .bss.netif_list
                0x20009738        0x4 C:\Users\alien\AppData\Local\Temp\ccodVkrc.ltrans0.ltrans.o
 .bss.netif_num
                0x2000973c        0x1 C:\Users\alien\AppData\Local\Temp\ccodVkrc.ltrans0.ltrans.o
 .bss.pbuf_free_ooseq_pending
                0x2000973d        0x1 C:\Users\alien\AppData\Local\Temp\ccodVkrc.ltrans0.ltrans.o
 *fill*         0x2000973e        0x2 
 .bss.peMBFrameReceiveCur
                0x20009740        0x4 C:\Users\alien\AppData\Local\Temp\ccodVkrc.ltrans0.ltrans.o
 .bss.peMBFrameSendCur
                0x20009744        0x4 C:\Users\alien\AppData\Local\Temp\ccodVkrc.ltrans0.ltrans.o
 .bss.peMBMasterFrameReceiveCur
                0x20009748        0x4 C:\Users\alien\AppData\Local\Temp\ccodVkrc.ltrans0.ltrans.o
 .bss.peMBMasterFrameSendCur
                0x2000974c        0x4 C:\Users\alien\AppData\Local\Temp\ccodVkrc.ltrans0.ltrans.o
 .bss.peer_port
                0x20009750        0x2 C:\Users\alien\AppData\Local\Temp\ccodVkrc.ltrans0.ltrans.o
 *fill*         0x20009752        0x2 
 .bss.pvMBFrameStartCur
                0x20009754        0x4 C:\Users\alien\AppData\Local\Temp\ccodVkrc.ltrans0.ltrans.o
 .bss.pvMBMasterFrameStartCur
                0x20009758        0x4 C:\Users\alien\AppData\Local\Temp\ccodVkrc.ltrans0.ltrans.o
 .bss.ram       0x2000975c        0x4 C:\Users\alien\AppData\Local\Temp\ccodVkrc.ltrans0.ltrans.o
 .bss.ram_end   0x20009760        0x4 C:\Users\alien\AppData\Local\Temp\ccodVkrc.ltrans0.ltrans.o
 .bss.ram_heap  0x20009764     0x2813 C:\Users\alien\AppData\Local\Temp\ccodVkrc.ltrans0.ltrans.o
 *fill*         0x2000bf77        0x1 
 .bss.reassdatagrams
                0x2000bf78        0x4 C:\Users\alien\AppData\Local\Temp\ccodVkrc.ltrans0.ltrans.o
 .bss.recv_acked
                0x2000bf7c        0x2 C:\Users\alien\AppData\Local\Temp\ccodVkrc.ltrans0.ltrans.o
 *fill*         0x2000bf7e        0x2 
 .bss.recv_data
                0x2000bf80        0x4 C:\Users\alien\AppData\Local\Temp\ccodVkrc.ltrans0.ltrans.o
 .bss.recv_flags
                0x2000bf84        0x1 C:\Users\alien\AppData\Local\Temp\ccodVkrc.ltrans0.ltrans.o
 *fill*         0x2000bf85        0x3 
 .bss.s_xSemaphore
                0x2000bf88        0x4 C:\Users\alien\AppData\Local\Temp\ccodVkrc.ltrans0.ltrans.o
                0x2000bf88                s_xSemaphore
 .bss.seqno     0x2000bf8c        0x4 C:\Users\alien\AppData\Local\Temp\ccodVkrc.ltrans0.ltrans.o
 .bss.socket_udp
                0x2000bf90        0x4 C:\Users\alien\AppData\Local\Temp\ccodVkrc.ltrans0.ltrans.o
 .bss.tcp_active_pcbs_changed
                0x2000bf94        0x1 C:\Users\alien\AppData\Local\Temp\ccodVkrc.ltrans0.ltrans.o
 *fill*         0x2000bf95        0x1 
 .bss.tcp_optidx
                0x2000bf96        0x2 C:\Users\alien\AppData\Local\Temp\ccodVkrc.ltrans0.ltrans.o
 .bss.tcp_timer
                0x2000bf98        0x1 C:\Users\alien\AppData\Local\Temp\ccodVkrc.ltrans0.ltrans.o
 .bss.tcp_timer_ctr
                0x2000bf99        0x1 C:\Users\alien\AppData\Local\Temp\ccodVkrc.ltrans0.ltrans.o
 *fill*         0x2000bf9a        0x2 
 .bss.tcphdr    0x2000bf9c        0x4 C:\Users\alien\AppData\Local\Temp\ccodVkrc.ltrans0.ltrans.o
 .bss.tcphdr_opt1len
                0x2000bfa0        0x2 C:\Users\alien\AppData\Local\Temp\ccodVkrc.ltrans0.ltrans.o
 *fill*         0x2000bfa2        0x2 
 .bss.tcphdr_opt2
                0x2000bfa4        0x4 C:\Users\alien\AppData\Local\Temp\ccodVkrc.ltrans0.ltrans.o
 .bss.tcphdr_optlen
                0x2000bfa8        0x2 C:\Users\alien\AppData\Local\Temp\ccodVkrc.ltrans0.ltrans.o
 .bss.tcplen    0x2000bfaa        0x2 C:\Users\alien\AppData\Local\Temp\ccodVkrc.ltrans0.ltrans.o
 .bss.total_count
                0x2000bfac        0x4 C:\Users\alien\AppData\Local\Temp\ccodVkrc.ltrans0.ltrans.o
 .bss.ucFunctionCode.10366
                0x2000bfb0        0x1 C:\Users\alien\AppData\Local\Temp\ccodVkrc.ltrans0.ltrans.o
 .bss.ucMBAddress
                0x2000bfb1        0x1 C:\Users\alien\AppData\Local\Temp\ccodVkrc.ltrans0.ltrans.o
 *fill*         0x2000bfb2        0x2 
 .bss.ucMBFrame.10364
                0x2000bfb4        0x4 C:\Users\alien\AppData\Local\Temp\ccodVkrc.ltrans0.ltrans.o
 .bss.ucMBFrame.10506
                0x2000bfb8        0x4 C:\Users\alien\AppData\Local\Temp\ccodVkrc.ltrans0.ltrans.o
 .bss.ucRcvAddress.10365
                0x2000bfbc        0x1 C:\Users\alien\AppData\Local\Temp\ccodVkrc.ltrans0.ltrans.o
 .bss.ucRcvAddress.10507
                0x2000bfbd        0x1 C:\Users\alien\AppData\Local\Temp\ccodVkrc.ltrans0.ltrans.o
 .bss.usLength.10367
                0x2000bfbe        0x2 C:\Users\alien\AppData\Local\Temp\ccodVkrc.ltrans0.ltrans.o
 .bss.usLength.10509
                0x2000bfc0        0x2 C:\Users\alien\AppData\Local\Temp\ccodVkrc.ltrans0.ltrans.o
 .bss.usMasterSendPDULength
                0x2000bfc2        0x2 C:\Users\alien\AppData\Local\Temp\ccodVkrc.ltrans0.ltrans.o
 .bss.user_env_address
                0x2000bfc4        0x4 C:\Users\alien\AppData\Local\Temp\ccodVkrc.ltrans0.ltrans.o
 .bss.user_msgbuf
                0x2000bfc8      0x400 C:\Users\alien\AppData\Local\Temp\ccodVkrc.ltrans0.ltrans.o
 .bss.xIdleTaskHandle
                0x2000c3c8        0x4 C:\Users\alien\AppData\Local\Temp\ccodVkrc.ltrans0.ltrans.o
 *fill*         0x2000c3cc        0x4 
 .bss.LogicalDiscreteInfo
                0x2000c3d0      0x100 C:\Users\alien\AppData\Local\Temp\ccodVkrc.ltrans1.ltrans.o
 .bss.TimeSelectOn
                0x2000c4d0        0x8 C:\Users\alien\AppData\Local\Temp\ccodVkrc.ltrans1.ltrans.o
 .bss.connected
                0x2000c4d8        0x1 C:\Users\alien\AppData\Local\Temp\ccodVkrc.ltrans1.ltrans.o
 *fill*         0x2000c4d9        0x3 
 .bss.connectionParameters
                0x2000c4dc        0x4 C:\Users\alien\AppData\Local\Temp\ccodVkrc.ltrans1.ltrans.o
 .bss.dtu_client
                0x2000c4e0        0x4 C:\Users\alien\AppData\Local\Temp\ccodVkrc.ltrans1.ltrans.o
 .bss.dtu_server
                0x2000c4e4        0x4 C:\Users\alien\AppData\Local\Temp\ccodVkrc.ltrans1.ltrans.o
 .bss.hiwdg     0x2000c4e8        0xc C:\Users\alien\AppData\Local\Temp\ccodVkrc.ltrans1.ltrans.o
 .bss.htim13    0x2000c4f4       0x3c C:\Users\alien\AppData\Local\Temp\ccodVkrc.ltrans1.ltrans.o
 .bss.s_aliases.11133
                0x2000c530        0x4 C:\Users\alien\AppData\Local\Temp\ccodVkrc.ltrans1.ltrans.o
 .bss.s_hostent.11132
                0x2000c534       0x14 C:\Users\alien\AppData\Local\Temp\ccodVkrc.ltrans1.ltrans.o
 .bss.s_hostent_addr.11134
                0x2000c548        0x4 C:\Users\alien\AppData\Local\Temp\ccodVkrc.ltrans1.ltrans.o
 .bss.s_hostname.11136
                0x2000c54c      0x101 C:\Users\alien\AppData\Local\Temp\ccodVkrc.ltrans1.ltrans.o
 *fill*         0x2000c64d        0x3 
 .bss.s_phostent_addr.11135
                0x2000c650        0x8 C:\Users\alien\AppData\Local\Temp\ccodVkrc.ltrans1.ltrans.o
 .bss.singleStaticSlaveInstance
                0x2000c658     0x4328 C:\Users\alien\AppData\Local\Temp\ccodVkrc.ltrans1.ltrans.o
 .bss.slave     0x20010980        0x4 C:\Users\alien\AppData\Local\Temp\ccodVkrc.ltrans1.ltrans.o
 .bss.sys_env_address
                0x20010984        0x4 C:\Users\alien\AppData\Local\Temp\ccodVkrc.ltrans1.ltrans.o
 .bss.MsgModbus.lto_priv.309
                0x20010988        0x4 C:\Users\alien\AppData\Local\Temp\ccodVkrc.ltrans2.ltrans.o
                0x20010988                MsgModbus.lto_priv.309
 .bss.MsgModbus.lto_priv.310
                0x2001098c        0x4 C:\Users\alien\AppData\Local\Temp\ccodVkrc.ltrans2.ltrans.o
                0x2001098c                MsgModbus.lto_priv.310
 .bss.dns_last_pcb_idx
                0x20010990        0x1 C:\Users\alien\AppData\Local\Temp\ccodVkrc.ltrans2.ltrans.o
 *fill*         0x20010991        0x3 
 .bss.dns_pcbs.lto_priv.330
                0x20010994       0x10 C:\Users\alien\AppData\Local\Temp\ccodVkrc.ltrans2.ltrans.o
                0x20010994                dns_pcbs.lto_priv.330
 .bss.dns_requests.lto_priv.329
                0x200109a4       0x30 C:\Users\alien\AppData\Local\Temp\ccodVkrc.ltrans2.ltrans.o
                0x200109a4                dns_requests.lto_priv.329
 .bss.dns_seqno
                0x200109d4        0x1 C:\Users\alien\AppData\Local\Temp\ccodVkrc.ltrans2.ltrans.o
 *fill*         0x200109d5        0x3 
 .bss.dns_servers.lto_priv.328
                0x200109d8        0x8 C:\Users\alien\AppData\Local\Temp\ccodVkrc.ltrans2.ltrans.o
                0x200109d8                dns_servers.lto_priv.328
 .bss.dns_table.lto_priv.327
                0x200109e0      0x440 C:\Users\alien\AppData\Local\Temp\ccodVkrc.ltrans2.ltrans.o
                0x200109e0                dns_table.lto_priv.327
 .bss.eMBMasterCurErrorType.lto_priv.335
                0x20010e20        0x1 C:\Users\alien\AppData\Local\Temp\ccodVkrc.ltrans2.ltrans.o
                0x20010e20                eMBMasterCurErrorType.lto_priv.335
 .bss.eMasterCurTimerMode
                0x20010e21        0x1 C:\Users\alien\AppData\Local\Temp\ccodVkrc.ltrans2.ltrans.o
 .bss.eRcvState.lto_priv.305
                0x20010e22        0x1 C:\Users\alien\AppData\Local\Temp\ccodVkrc.ltrans2.ltrans.o
 .bss.eRcvState.lto_priv.306
                0x20010e23        0x1 C:\Users\alien\AppData\Local\Temp\ccodVkrc.ltrans2.ltrans.o
 .bss.eSndState.lto_priv.307
                0x20010e24        0x1 C:\Users\alien\AppData\Local\Temp\ccodVkrc.ltrans2.ltrans.o
 .bss.eSndState.lto_priv.308
                0x20010e25        0x1 C:\Users\alien\AppData\Local\Temp\ccodVkrc.ltrans2.ltrans.o
 *fill*         0x20010e26        0x2 
 .bss.env       0x20010e28      0x18c C:\Users\alien\AppData\Local\Temp\ccodVkrc.ltrans2.ltrans.o
                0x20010e28                env
 .bss.gnetif    0x20010fb4       0x30 C:\Users\alien\AppData\Local\Temp\ccodVkrc.ltrans2.ltrans.o
                0x20010fb4                gnetif
 .bss.htim1     0x20010fe4       0x3c C:\Users\alien\AppData\Local\Temp\ccodVkrc.ltrans2.ltrans.o
 .bss.htim6     0x20011020       0x3c C:\Users\alien\AppData\Local\Temp\ccodVkrc.ltrans2.ltrans.o
 .bss.htim7     0x2001105c       0x3c C:\Users\alien\AppData\Local\Temp\ccodVkrc.ltrans2.ltrans.o
 .bss.huart1    0x20011098       0x40 C:\Users\alien\AppData\Local\Temp\ccodVkrc.ltrans2.ltrans.o
                0x20011098                huart1
 .bss.inseg.lto_priv.325
                0x200110d8       0x10 C:\Users\alien\AppData\Local\Temp\ccodVkrc.ltrans2.ltrans.o
                0x200110d8                inseg.lto_priv.325
 .bss.lock_tcpip_core
                0x200110e8        0x4 C:\Users\alien\AppData\Local\Temp\ccodVkrc.ltrans2.ltrans.o
                0x200110e8                lock_tcpip_core
 .bss.mbox.lto_priv.326
                0x200110ec        0x4 C:\Users\alien\AppData\Local\Temp\ccodVkrc.ltrans2.ltrans.o
                0x200110ec                mbox.lto_priv.326
 .bss.netconn_aborted
                0x200110f0        0x1 C:\Users\alien\AppData\Local\Temp\ccodVkrc.ltrans2.ltrans.o
 *fill*         0x200110f1        0x3 
 .bss.next_timeout
                0x200110f4        0x4 C:\Users\alien\AppData\Local\Temp\ccodVkrc.ltrans2.ltrans.o
 .bss.pucMasterSndBufferCur
                0x200110f8        0x4 C:\Users\alien\AppData\Local\Temp\ccodVkrc.ltrans2.ltrans.o
 .bss.pucSndBufferCur
                0x200110fc        0x4 C:\Users\alien\AppData\Local\Temp\ccodVkrc.ltrans2.ltrans.o
 .bss.pxDelayedTaskList
                0x20011100        0x4 C:\Users\alien\AppData\Local\Temp\ccodVkrc.ltrans2.ltrans.o
 .bss.pxEnd     0x20011104        0x4 C:\Users\alien\AppData\Local\Temp\ccodVkrc.ltrans2.ltrans.o
 .bss.pxMBFrameCBByteReceived
                0x20011108        0x4 C:\Users\alien\AppData\Local\Temp\ccodVkrc.ltrans2.ltrans.o
                0x20011108                pxMBFrameCBByteReceived
 .bss.pxMBMasterFrameCBByteReceived
                0x2001110c        0x4 C:\Users\alien\AppData\Local\Temp\ccodVkrc.ltrans2.ltrans.o
                0x2001110c                pxMBMasterFrameCBByteReceived
 .bss.pxOverflowDelayedTaskList
                0x20011110        0x4 C:\Users\alien\AppData\Local\Temp\ccodVkrc.ltrans2.ltrans.o
 .bss.select_cb_ctr.lto_priv.375
                0x20011114        0x4 C:\Users\alien\AppData\Local\Temp\ccodVkrc.ltrans2.ltrans.o
                0x20011114                select_cb_ctr.lto_priv.375
 .bss.select_cb_list.lto_priv.374
                0x20011118        0x4 C:\Users\alien\AppData\Local\Temp\ccodVkrc.ltrans2.ltrans.o
                0x20011118                select_cb_list.lto_priv.374
 .bss.slave_rx  0x2001111c        0x1 C:\Users\alien\AppData\Local\Temp\ccodVkrc.ltrans2.ltrans.o
 *fill*         0x2001111d        0x3 
 .bss.tcp_active_pcbs
                0x20011120        0x4 C:\Users\alien\AppData\Local\Temp\ccodVkrc.ltrans2.ltrans.o
                0x20011120                tcp_active_pcbs
 .bss.tcp_bound_pcbs
                0x20011124        0x4 C:\Users\alien\AppData\Local\Temp\ccodVkrc.ltrans2.ltrans.o
                0x20011124                tcp_bound_pcbs
 .bss.tcp_input_pcb
                0x20011128        0x4 C:\Users\alien\AppData\Local\Temp\ccodVkrc.ltrans2.ltrans.o
                0x20011128                tcp_input_pcb
 .bss.tcp_listen_pcbs
                0x2001112c        0x4 C:\Users\alien\AppData\Local\Temp\ccodVkrc.ltrans2.ltrans.o
                0x2001112c                tcp_listen_pcbs
 .bss.tcp_ticks
                0x20011130        0x4 C:\Users\alien\AppData\Local\Temp\ccodVkrc.ltrans2.ltrans.o
                0x20011130                tcp_ticks
 .bss.tcp_tw_pcbs
                0x20011134        0x4 C:\Users\alien\AppData\Local\Temp\ccodVkrc.ltrans2.ltrans.o
                0x20011134                tcp_tw_pcbs
 .bss.tcpip_init_done.lto_priv.355
                0x20011138        0x4 C:\Users\alien\AppData\Local\Temp\ccodVkrc.ltrans2.ltrans.o
                0x20011138                tcpip_init_done.lto_priv.355
 .bss.tcpip_init_done_arg.lto_priv.356
                0x2001113c        0x4 C:\Users\alien\AppData\Local\Temp\ccodVkrc.ltrans2.ltrans.o
                0x2001113c                tcpip_init_done_arg.lto_priv.356
 .bss.tcpip_tcp_timer_active
                0x20011140        0x4 C:\Users\alien\AppData\Local\Temp\ccodVkrc.ltrans2.ltrans.o
 .bss.timeouts_last_time.lto_priv.359
                0x20011144        0x4 C:\Users\alien\AppData\Local\Temp\ccodVkrc.ltrans2.ltrans.o
                0x20011144                timeouts_last_time.lto_priv.359
 .bss.ucMBMasterDestAddress.lto_priv.334
                0x20011148        0x1 C:\Users\alien\AppData\Local\Temp\ccodVkrc.ltrans2.ltrans.o
                0x20011148                ucMBMasterDestAddress.lto_priv.334
 .bss.ucMBSlaveID
                0x20011149       0x20 C:\Users\alien\AppData\Local\Temp\ccodVkrc.ltrans2.ltrans.o
 .bss.ucMCoilBuf
                0x20011169       0x80 C:\Users\alien\AppData\Local\Temp\ccodVkrc.ltrans2.ltrans.o
 .bss.ucMDiscInBuf
                0x200111e9       0x20 C:\Users\alien\AppData\Local\Temp\ccodVkrc.ltrans2.ltrans.o
 .bss.ucMasterRTURcvBuf
                0x20011209      0x100 C:\Users\alien\AppData\Local\Temp\ccodVkrc.ltrans2.ltrans.o
 .bss.ucMasterRTUSndBuf.lto_priv.337
                0x20011309       0xfd C:\Users\alien\AppData\Local\Temp\ccodVkrc.ltrans2.ltrans.o
                0x20011309                ucMasterRTUSndBuf.lto_priv.337
 .bss.ucMaxSysCallPriority.lto_priv.342
                0x20011406        0x1 C:\Users\alien\AppData\Local\Temp\ccodVkrc.ltrans2.ltrans.o
                0x20011406                ucMaxSysCallPriority.lto_priv.342
 .bss.ucRTUBuf  0x20011407      0x100 C:\Users\alien\AppData\Local\Temp\ccodVkrc.ltrans2.ltrans.o
 .bss.ucSCoilBuf
                0x20011507        0x8 C:\Users\alien\AppData\Local\Temp\ccodVkrc.ltrans2.ltrans.o
 .bss.ucSDiscInBuf
                0x2001150f        0x2 C:\Users\alien\AppData\Local\Temp\ccodVkrc.ltrans2.ltrans.o
 *fill*         0x20011511        0x3 
 .bss.udp_pcbs  0x20011514        0x4 C:\Users\alien\AppData\Local\Temp\ccodVkrc.ltrans2.ltrans.o
                0x20011514                udp_pcbs
 .bss.ulMaxPRIGROUPValue.lto_priv.343
                0x20011518        0x4 C:\Users\alien\AppData\Local\Temp\ccodVkrc.ltrans2.ltrans.o
                0x20011518                ulMaxPRIGROUPValue.lto_priv.343
 .bss.usMasterRcvBufferPos
                0x2001151c        0x2 C:\Users\alien\AppData\Local\Temp\ccodVkrc.ltrans2.ltrans.o
 .bss.usMasterSndBufferCount
                0x2001151e        0x2 C:\Users\alien\AppData\Local\Temp\ccodVkrc.ltrans2.ltrans.o
 .bss.usRcvBufferPos
                0x20011520        0x2 C:\Users\alien\AppData\Local\Temp\ccodVkrc.ltrans2.ltrans.o
 .bss.usSndBufferCount
                0x20011522        0x2 C:\Users\alien\AppData\Local\Temp\ccodVkrc.ltrans2.ltrans.o
 .bss.uxCurrentNumberOfTasks.lto_priv.373
                0x20011524        0x4 C:\Users\alien\AppData\Local\Temp\ccodVkrc.ltrans2.ltrans.o
                0x20011524                uxCurrentNumberOfTasks.lto_priv.373
 .bss.uxDeletedTasksWaitingCleanUp.lto_priv.372
                0x20011528        0x4 C:\Users\alien\AppData\Local\Temp\ccodVkrc.ltrans2.ltrans.o
                0x20011528                uxDeletedTasksWaitingCleanUp.lto_priv.372
 .bss.uxPendedTicks
                0x2001152c        0x4 C:\Users\alien\AppData\Local\Temp\ccodVkrc.ltrans2.ltrans.o
 .bss.uxTaskNumber.lto_priv.370
                0x20011530        0x4 C:\Users\alien\AppData\Local\Temp\ccodVkrc.ltrans2.ltrans.o
                0x20011530                uxTaskNumber.lto_priv.370
 .bss.xBlockAllocatedBit
                0x20011534        0x4 C:\Users\alien\AppData\Local\Temp\ccodVkrc.ltrans2.ltrans.o
 .bss.xDelayedTaskList1
                0x20011538       0x14 C:\Users\alien\AppData\Local\Temp\ccodVkrc.ltrans2.ltrans.o
 .bss.xDelayedTaskList2
                0x2001154c       0x14 C:\Users\alien\AppData\Local\Temp\ccodVkrc.ltrans2.ltrans.o
 .bss.xFrameIsBroadcast.lto_priv.336
                0x20011560        0x1 C:\Users\alien\AppData\Local\Temp\ccodVkrc.ltrans2.ltrans.o
                0x20011560                xFrameIsBroadcast.lto_priv.336
 *fill*         0x20011561        0x3 
 .bss.xFreeBytesRemaining
                0x20011564        0x4 C:\Users\alien\AppData\Local\Temp\ccodVkrc.ltrans2.ltrans.o
 .bss.xMinimumEverFreeBytesRemaining
                0x20011568        0x4 C:\Users\alien\AppData\Local\Temp\ccodVkrc.ltrans2.ltrans.o
 .bss.xNextTaskUnblockTime.lto_priv.341
                0x2001156c        0x4 C:\Users\alien\AppData\Local\Temp\ccodVkrc.ltrans2.ltrans.o
                0x2001156c                xNextTaskUnblockTime.lto_priv.341
 .bss.xPendingReadyList
                0x20011570       0x14 C:\Users\alien\AppData\Local\Temp\ccodVkrc.ltrans2.ltrans.o
 .bss.xQueueRegistry
                0x20011584       0x40 C:\Users\alien\AppData\Local\Temp\ccodVkrc.ltrans2.ltrans.o
 .bss.xStart    0x200115c4        0x8 C:\Users\alien\AppData\Local\Temp\ccodVkrc.ltrans2.ltrans.o
 .bss.xSuspendedTaskList
                0x200115cc       0x14 C:\Users\alien\AppData\Local\Temp\ccodVkrc.ltrans2.ltrans.o
 .bss.xTasksWaitingTermination.lto_priv.371
                0x200115e0       0x14 C:\Users\alien\AppData\Local\Temp\ccodVkrc.ltrans2.ltrans.o
                0x200115e0                xTasksWaitingTermination.lto_priv.371
 .bss.xYieldPending
                0x200115f4        0x4 C:\Users\alien\AppData\Local\Temp\ccodVkrc.ltrans2.ltrans.o
 .bss.CanNetwork
                0x200115f8        0x4 C:\Users\alien\AppData\Local\Temp\ccodVkrc.ltrans3.ltrans.o
                0x200115f8                CanNetwork
 .bss.hcan1     0x200115fc       0x44 C:\Users\alien\AppData\Local\Temp\ccodVkrc.ltrans3.ltrans.o
                0x200115fc                hcan1
 .bss.hdma_usart6_rx
                0x20011640       0x60 C:\Users\alien\AppData\Local\Temp\ccodVkrc.ltrans3.ltrans.o
                0x20011640                hdma_usart6_rx
 .bss.heth      0x200116a0       0x48 C:\Users\alien\AppData\Local\Temp\ccodVkrc.ltrans3.ltrans.o
                0x200116a0                heth
 .bss.hrtc      0x200116e8       0x20 C:\Users\alien\AppData\Local\Temp\ccodVkrc.ltrans3.ltrans.o
                0x200116e8                hrtc
 .bss.huart6    0x20011708       0x40 C:\Users\alien\AppData\Local\Temp\ccodVkrc.ltrans3.ltrans.o
                0x20011708                huart6
 .bss.lwip_sys_mutex
                0x20011748        0x4 C:\Users\alien\AppData\Local\Temp\ccodVkrc.ltrans3.ltrans.o
                0x20011748                lwip_sys_mutex
 .bss.pFlash    0x2001174c       0x20 C:\Users\alien\AppData\Local\Temp\ccodVkrc.ltrans3.ltrans.o
                0x2001174c                pFlash
 .bss.pxCurrentTCB
                0x2001176c        0x4 C:\Users\alien\AppData\Local\Temp\ccodVkrc.ltrans3.ltrans.o
                0x2001176c                pxCurrentTCB
 .bss.pxReadyTasksLists.lto_priv.314
                0x20011770       0x8c C:\Users\alien\AppData\Local\Temp\ccodVkrc.ltrans3.ltrans.o
                0x20011770                pxReadyTasksLists.lto_priv.314
 .bss.sockets.lto_priv.317
                0x200117fc       0xf0 C:\Users\alien\AppData\Local\Temp\ccodVkrc.ltrans3.ltrans.o
                0x200117fc                sockets.lto_priv.317
 .bss.uart_rx_buf.lto_priv.369
                0x200118ec      0x100 C:\Users\alien\AppData\Local\Temp\ccodVkrc.ltrans3.ltrans.o
                0x200118ec                uart_rx_buf.lto_priv.369
 .bss.uwTick    0x200119ec        0x4 C:\Users\alien\AppData\Local\Temp\ccodVkrc.ltrans3.ltrans.o
                0x200119ec                uwTick
 .bss.uxSchedulerSuspended.lto_priv.315
                0x200119f0        0x4 C:\Users\alien\AppData\Local\Temp\ccodVkrc.ltrans3.ltrans.o
                0x200119f0                uxSchedulerSuspended.lto_priv.315
 .bss.uxTopReadyPriority.lto_priv.313
                0x200119f4        0x4 C:\Users\alien\AppData\Local\Temp\ccodVkrc.ltrans3.ltrans.o
                0x200119f4                uxTopReadyPriority.lto_priv.313
 .bss.xNumOfOverflows.lto_priv.312
                0x200119f8        0x4 C:\Users\alien\AppData\Local\Temp\ccodVkrc.ltrans3.ltrans.o
                0x200119f8                xNumOfOverflows.lto_priv.312
 .bss.xSchedulerRunning.lto_priv.316
                0x200119fc        0x4 C:\Users\alien\AppData\Local\Temp\ccodVkrc.ltrans3.ltrans.o
                0x200119fc                xSchedulerRunning.lto_priv.316
 .bss.xTickCount.lto_priv.311
                0x20011a00        0x4 C:\Users\alien\AppData\Local\Temp\ccodVkrc.ltrans3.ltrans.o
                0x20011a00                xTickCount.lto_priv.311
 .bss.__malloc_free_list
                0x20011a04        0x4 d:/gnu/gcc-arm-none-eabi-7-2017-q4-major-win32/bin/../lib/gcc/arm-none-eabi/7.2.1/../../../../arm-none-eabi/lib/thumb/v7e-m/fpv4-sp/hard\libg_nano.a(lib_a-nano-mallocr.o)
                0x20011a04                __malloc_free_list
 .bss.__malloc_sbrk_start
                0x20011a08        0x4 d:/gnu/gcc-arm-none-eabi-7-2017-q4-major-win32/bin/../lib/gcc/arm-none-eabi/7.2.1/../../../../arm-none-eabi/lib/thumb/v7e-m/fpv4-sp/hard\libg_nano.a(lib_a-nano-mallocr.o)
                0x20011a08                __malloc_sbrk_start
 .bss.__tzname_dst
                0x20011a0c        0xb d:/gnu/gcc-arm-none-eabi-7-2017-q4-major-win32/bin/../lib/gcc/arm-none-eabi/7.2.1/../../../../arm-none-eabi/lib/thumb/v7e-m/fpv4-sp/hard\libg_nano.a(lib_a-tzset_r.o)
 .bss.__tzname_std
                0x20011a17        0xb d:/gnu/gcc-arm-none-eabi-7-2017-q4-major-win32/bin/../lib/gcc/arm-none-eabi/7.2.1/../../../../arm-none-eabi/lib/thumb/v7e-m/fpv4-sp/hard\libg_nano.a(lib_a-tzset_r.o)
 *fill*         0x20011a22        0x2 
 .bss.prev_tzenv
                0x20011a24        0x4 d:/gnu/gcc-arm-none-eabi-7-2017-q4-major-win32/bin/../lib/gcc/arm-none-eabi/7.2.1/../../../../arm-none-eabi/lib/thumb/v7e-m/fpv4-sp/hard\libg_nano.a(lib_a-tzset_r.o)
 .bss._daylight
                0x20011a28        0x4 d:/gnu/gcc-arm-none-eabi-7-2017-q4-major-win32/bin/../lib/gcc/arm-none-eabi/7.2.1/../../../../arm-none-eabi/lib/thumb/v7e-m/fpv4-sp/hard\libg_nano.a(lib_a-tzvars.o)
                0x20011a28                _daylight
 .bss._timezone
                0x20011a2c        0x4 d:/gnu/gcc-arm-none-eabi-7-2017-q4-major-win32/bin/../lib/gcc/arm-none-eabi/7.2.1/../../../../arm-none-eabi/lib/thumb/v7e-m/fpv4-sp/hard\libg_nano.a(lib_a-tzvars.o)
                0x20011a2c                _timezone
 .bss.initial_env
                0x20011a30        0x4 d:/gnu/gcc-arm-none-eabi-7-2017-q4-major-win32/bin/../lib/gcc/arm-none-eabi/7.2.1/../../../../arm-none-eabi/lib/thumb/v7e-m/fpv4-sp/hard\libg_nano.a(lib_a-environ.o)
 *(COMMON)
 COMMON         0x20011a34        0x4 C:\Users\alien\AppData\Local\Temp\ccodVkrc.ltrans3.ltrans.o
                0x20011a34                errno
                0x20011a38                . = ALIGN (0x4)
                0x20011a38                _ebss = .
                0x20011a38                __bss_end__ = _ebss

._user_heap_stack
                0x20011a38      0x800
                0x20011a38                . = ALIGN (0x8)
                0x20011a38                PROVIDE (end, .)
                [!provide]                PROVIDE (_end, .)
                0x20011e38                . = (. + _Min_Heap_Size)
 *fill*         0x20011a38      0x400 
                0x20012238                . = (. + _Min_Stack_Size)
 *fill*         0x20011e38      0x400 
                0x20012238                . = ALIGN (0x8)

/DISCARD/
 libc.a(*)
 libm.a(*)
 libgcc.a(*)

.ARM.attributes
                0x00000000       0x30
 *(.ARM.attributes)
 .ARM.attributes
                0x00000000       0x22 d:/gnu/gcc-arm-none-eabi-7-2017-q4-major-win32/bin/../lib/gcc/arm-none-eabi/7.2.1/thumb/v7e-m/fpv4-sp/hard/crti.o
 .ARM.attributes
                0x00000022       0x34 d:/gnu/gcc-arm-none-eabi-7-2017-q4-major-win32/bin/../lib/gcc/arm-none-eabi/7.2.1/thumb/v7e-m/fpv4-sp/hard/crtbegin.o
 .ARM.attributes
                0x00000056       0x37 C:\Users\alien\AppData\Local\Temp\ccodVkrc.ltrans0.ltrans.o
 .ARM.attributes
                0x0000008d       0x37 C:\Users\alien\AppData\Local\Temp\ccodVkrc.ltrans1.ltrans.o
 .ARM.attributes
                0x000000c4       0x37 C:\Users\alien\AppData\Local\Temp\ccodVkrc.ltrans2.ltrans.o
 .ARM.attributes
                0x000000fb       0x37 C:\Users\alien\AppData\Local\Temp\ccodVkrc.ltrans3.ltrans.o
 .ARM.attributes
                0x00000132       0x21 ./startup_stm32f407xx.o
 .ARM.attributes
                0x00000153       0x34 d:/gnu/gcc-arm-none-eabi-7-2017-q4-major-win32/bin/../lib/gcc/arm-none-eabi/7.2.1/../../../../arm-none-eabi/lib/thumb/v7e-m/fpv4-sp/hard\libg_nano.a(lib_a-calloc.o)
 .ARM.attributes
                0x00000187       0x34 d:/gnu/gcc-arm-none-eabi-7-2017-q4-major-win32/bin/../lib/gcc/arm-none-eabi/7.2.1/../../../../arm-none-eabi/lib/thumb/v7e-m/fpv4-sp/hard\libg_nano.a(lib_a-impure.o)
 .ARM.attributes
                0x000001bb       0x34 d:/gnu/gcc-arm-none-eabi-7-2017-q4-major-win32/bin/../lib/gcc/arm-none-eabi/7.2.1/../../../../arm-none-eabi/lib/thumb/v7e-m/fpv4-sp/hard\libg_nano.a(lib_a-init.o)
 .ARM.attributes
                0x000001ef       0x34 d:/gnu/gcc-arm-none-eabi-7-2017-q4-major-win32/bin/../lib/gcc/arm-none-eabi/7.2.1/../../../../arm-none-eabi/lib/thumb/v7e-m/fpv4-sp/hard\libg_nano.a(lib_a-lcltime_r.o)
 .ARM.attributes
                0x00000223       0x34 d:/gnu/gcc-arm-none-eabi-7-2017-q4-major-win32/bin/../lib/gcc/arm-none-eabi/7.2.1/../../../../arm-none-eabi/lib/thumb/v7e-m/fpv4-sp/hard\libg_nano.a(lib_a-memcmp.o)
 .ARM.attributes
                0x00000257       0x34 d:/gnu/gcc-arm-none-eabi-7-2017-q4-major-win32/bin/../lib/gcc/arm-none-eabi/7.2.1/../../../../arm-none-eabi/lib/thumb/v7e-m/fpv4-sp/hard\libg_nano.a(lib_a-memcpy-stub.o)
 .ARM.attributes
                0x0000028b       0x34 d:/gnu/gcc-arm-none-eabi-7-2017-q4-major-win32/bin/../lib/gcc/arm-none-eabi/7.2.1/../../../../arm-none-eabi/lib/thumb/v7e-m/fpv4-sp/hard\libg_nano.a(lib_a-memset.o)
 .ARM.attributes
                0x000002bf       0x34 d:/gnu/gcc-arm-none-eabi-7-2017-q4-major-win32/bin/../lib/gcc/arm-none-eabi/7.2.1/../../../../arm-none-eabi/lib/thumb/v7e-m/fpv4-sp/hard\libg_nano.a(lib_a-month_lengths.o)
 .ARM.attributes
                0x000002f3       0x34 d:/gnu/gcc-arm-none-eabi-7-2017-q4-major-win32/bin/../lib/gcc/arm-none-eabi/7.2.1/../../../../arm-none-eabi/lib/thumb/v7e-m/fpv4-sp/hard\libg_nano.a(lib_a-nano-callocr.o)
 .ARM.attributes
                0x00000327       0x34 d:/gnu/gcc-arm-none-eabi-7-2017-q4-major-win32/bin/../lib/gcc/arm-none-eabi/7.2.1/../../../../arm-none-eabi/lib/thumb/v7e-m/fpv4-sp/hard\libg_nano.a(lib_a-nano-mallocr.o)
 .ARM.attributes
                0x0000035b       0x34 d:/gnu/gcc-arm-none-eabi-7-2017-q4-major-win32/bin/../lib/gcc/arm-none-eabi/7.2.1/../../../../arm-none-eabi/lib/thumb/v7e-m/fpv4-sp/hard\libg_nano.a(lib_a-printf.o)
 .ARM.attributes
                0x0000038f       0x34 d:/gnu/gcc-arm-none-eabi-7-2017-q4-major-win32/bin/../lib/gcc/arm-none-eabi/7.2.1/../../../../arm-none-eabi/lib/thumb/v7e-m/fpv4-sp/hard\libg_nano.a(lib_a-rand.o)
 .ARM.attributes
                0x000003c3       0x34 d:/gnu/gcc-arm-none-eabi-7-2017-q4-major-win32/bin/../lib/gcc/arm-none-eabi/7.2.1/../../../../arm-none-eabi/lib/thumb/v7e-m/fpv4-sp/hard\libg_nano.a(lib_a-sbrkr.o)
 .ARM.attributes
                0x000003f7       0x34 d:/gnu/gcc-arm-none-eabi-7-2017-q4-major-win32/bin/../lib/gcc/arm-none-eabi/7.2.1/../../../../arm-none-eabi/lib/thumb/v7e-m/fpv4-sp/hard\libg_nano.a(lib_a-strcpy.o)
 .ARM.attributes
                0x0000042b       0x1b d:/gnu/gcc-arm-none-eabi-7-2017-q4-major-win32/bin/../lib/gcc/arm-none-eabi/7.2.1/../../../../arm-none-eabi/lib/thumb/v7e-m/fpv4-sp/hard\libg_nano.a(lib_a-strlen.o)
 .ARM.attributes
                0x00000446       0x34 d:/gnu/gcc-arm-none-eabi-7-2017-q4-major-win32/bin/../lib/gcc/arm-none-eabi/7.2.1/../../../../arm-none-eabi/lib/thumb/v7e-m/fpv4-sp/hard\libg_nano.a(lib_a-strncmp.o)
 .ARM.attributes
                0x0000047a       0x34 d:/gnu/gcc-arm-none-eabi-7-2017-q4-major-win32/bin/../lib/gcc/arm-none-eabi/7.2.1/../../../../arm-none-eabi/lib/thumb/v7e-m/fpv4-sp/hard\libg_nano.a(lib_a-strncpy.o)
 .ARM.attributes
                0x000004ae       0x34 d:/gnu/gcc-arm-none-eabi-7-2017-q4-major-win32/bin/../lib/gcc/arm-none-eabi/7.2.1/../../../../arm-none-eabi/lib/thumb/v7e-m/fpv4-sp/hard\libg_nano.a(lib_a-strtol.o)
 .ARM.attributes
                0x000004e2       0x34 d:/gnu/gcc-arm-none-eabi-7-2017-q4-major-win32/bin/../lib/gcc/arm-none-eabi/7.2.1/../../../../arm-none-eabi/lib/thumb/v7e-m/fpv4-sp/hard\libg_nano.a(lib_a-tzcalc_limits.o)
 .ARM.attributes
                0x00000516       0x34 d:/gnu/gcc-arm-none-eabi-7-2017-q4-major-win32/bin/../lib/gcc/arm-none-eabi/7.2.1/../../../../arm-none-eabi/lib/thumb/v7e-m/fpv4-sp/hard\libg_nano.a(lib_a-tzlock.o)
 .ARM.attributes
                0x0000054a       0x34 d:/gnu/gcc-arm-none-eabi-7-2017-q4-major-win32/bin/../lib/gcc/arm-none-eabi/7.2.1/../../../../arm-none-eabi/lib/thumb/v7e-m/fpv4-sp/hard\libg_nano.a(lib_a-tzset.o)
 .ARM.attributes
                0x0000057e       0x34 d:/gnu/gcc-arm-none-eabi-7-2017-q4-major-win32/bin/../lib/gcc/arm-none-eabi/7.2.1/../../../../arm-none-eabi/lib/thumb/v7e-m/fpv4-sp/hard\libg_nano.a(lib_a-tzset_r.o)
 .ARM.attributes
                0x000005b2       0x34 d:/gnu/gcc-arm-none-eabi-7-2017-q4-major-win32/bin/../lib/gcc/arm-none-eabi/7.2.1/../../../../arm-none-eabi/lib/thumb/v7e-m/fpv4-sp/hard\libg_nano.a(lib_a-tzvars.o)
 .ARM.attributes
                0x000005e6       0x34 d:/gnu/gcc-arm-none-eabi-7-2017-q4-major-win32/bin/../lib/gcc/arm-none-eabi/7.2.1/../../../../arm-none-eabi/lib/thumb/v7e-m/fpv4-sp/hard\libg_nano.a(lib_a-findfp.o)
 .ARM.attributes
                0x0000061a       0x34 d:/gnu/gcc-arm-none-eabi-7-2017-q4-major-win32/bin/../lib/gcc/arm-none-eabi/7.2.1/../../../../arm-none-eabi/lib/thumb/v7e-m/fpv4-sp/hard\libg_nano.a(lib_a-fwalk.o)
 .ARM.attributes
                0x0000064e       0x34 d:/gnu/gcc-arm-none-eabi-7-2017-q4-major-win32/bin/../lib/gcc/arm-none-eabi/7.2.1/../../../../arm-none-eabi/lib/thumb/v7e-m/fpv4-sp/hard\libg_nano.a(lib_a-getenv_r.o)
 .ARM.attributes
                0x00000682       0x34 d:/gnu/gcc-arm-none-eabi-7-2017-q4-major-win32/bin/../lib/gcc/arm-none-eabi/7.2.1/../../../../arm-none-eabi/lib/thumb/v7e-m/fpv4-sp/hard\libg_nano.a(lib_a-gettzinfo.o)
 .ARM.attributes
                0x000006b6       0x34 d:/gnu/gcc-arm-none-eabi-7-2017-q4-major-win32/bin/../lib/gcc/arm-none-eabi/7.2.1/../../../../arm-none-eabi/lib/thumb/v7e-m/fpv4-sp/hard\libg_nano.a(lib_a-gmtime_r.o)
 .ARM.attributes
                0x000006ea       0x34 d:/gnu/gcc-arm-none-eabi-7-2017-q4-major-win32/bin/../lib/gcc/arm-none-eabi/7.2.1/../../../../arm-none-eabi/lib/thumb/v7e-m/fpv4-sp/hard\libg_nano.a(lib_a-locale.o)
 .ARM.attributes
                0x0000071e       0x34 d:/gnu/gcc-arm-none-eabi-7-2017-q4-major-win32/bin/../lib/gcc/arm-none-eabi/7.2.1/../../../../arm-none-eabi/lib/thumb/v7e-m/fpv4-sp/hard\libg_nano.a(lib_a-malloc.o)
 .ARM.attributes
                0x00000752       0x34 d:/gnu/gcc-arm-none-eabi-7-2017-q4-major-win32/bin/../lib/gcc/arm-none-eabi/7.2.1/../../../../arm-none-eabi/lib/thumb/v7e-m/fpv4-sp/hard\libg_nano.a(lib_a-mbtowc_r.o)
 .ARM.attributes
                0x00000786       0x34 d:/gnu/gcc-arm-none-eabi-7-2017-q4-major-win32/bin/../lib/gcc/arm-none-eabi/7.2.1/../../../../arm-none-eabi/lib/thumb/v7e-m/fpv4-sp/hard\libg_nano.a(lib_a-mlock.o)
 .ARM.attributes
                0x000007ba       0x34 d:/gnu/gcc-arm-none-eabi-7-2017-q4-major-win32/bin/../lib/gcc/arm-none-eabi/7.2.1/../../../../arm-none-eabi/lib/thumb/v7e-m/fpv4-sp/hard\libg_nano.a(lib_a-nano-freer.o)
 .ARM.attributes
                0x000007ee       0x34 d:/gnu/gcc-arm-none-eabi-7-2017-q4-major-win32/bin/../lib/gcc/arm-none-eabi/7.2.1/../../../../arm-none-eabi/lib/thumb/v7e-m/fpv4-sp/hard\libg_nano.a(lib_a-nano-reallocr.o)
 .ARM.attributes
                0x00000822       0x34 d:/gnu/gcc-arm-none-eabi-7-2017-q4-major-win32/bin/../lib/gcc/arm-none-eabi/7.2.1/../../../../arm-none-eabi/lib/thumb/v7e-m/fpv4-sp/hard\libg_nano.a(lib_a-nano-vfprintf.o)
 .ARM.attributes
                0x00000856       0x34 d:/gnu/gcc-arm-none-eabi-7-2017-q4-major-win32/bin/../lib/gcc/arm-none-eabi/7.2.1/../../../../arm-none-eabi/lib/thumb/v7e-m/fpv4-sp/hard\libg_nano.a(lib_a-nano-vfprintf_i.o)
 .ARM.attributes
                0x0000088a       0x34 d:/gnu/gcc-arm-none-eabi-7-2017-q4-major-win32/bin/../lib/gcc/arm-none-eabi/7.2.1/../../../../arm-none-eabi/lib/thumb/v7e-m/fpv4-sp/hard\libg_nano.a(lib_a-sscanf.o)
 .ARM.attributes
                0x000008be       0x34 d:/gnu/gcc-arm-none-eabi-7-2017-q4-major-win32/bin/../lib/gcc/arm-none-eabi/7.2.1/../../../../arm-none-eabi/lib/thumb/v7e-m/fpv4-sp/hard\libg_nano.a(lib_a-stdio.o)
 .ARM.attributes
                0x000008f2       0x20 d:/gnu/gcc-arm-none-eabi-7-2017-q4-major-win32/bin/../lib/gcc/arm-none-eabi/7.2.1/../../../../arm-none-eabi/lib/thumb/v7e-m/fpv4-sp/hard\libg_nano.a(lib_a-strcmp.o)
 .ARM.attributes
                0x00000912       0x34 d:/gnu/gcc-arm-none-eabi-7-2017-q4-major-win32/bin/../lib/gcc/arm-none-eabi/7.2.1/../../../../arm-none-eabi/lib/thumb/v7e-m/fpv4-sp/hard\libg_nano.a(lib_a-strtoul.o)
 .ARM.attributes
                0x00000946       0x34 d:/gnu/gcc-arm-none-eabi-7-2017-q4-major-win32/bin/../lib/gcc/arm-none-eabi/7.2.1/../../../../arm-none-eabi/lib/thumb/v7e-m/fpv4-sp/hard\libg_nano.a(lib_a-wbuf.o)
 .ARM.attributes
                0x0000097a       0x34 d:/gnu/gcc-arm-none-eabi-7-2017-q4-major-win32/bin/../lib/gcc/arm-none-eabi/7.2.1/../../../../arm-none-eabi/lib/thumb/v7e-m/fpv4-sp/hard\libg_nano.a(lib_a-wctomb_r.o)
 .ARM.attributes
                0x000009ae       0x34 d:/gnu/gcc-arm-none-eabi-7-2017-q4-major-win32/bin/../lib/gcc/arm-none-eabi/7.2.1/../../../../arm-none-eabi/lib/thumb/v7e-m/fpv4-sp/hard\libg_nano.a(lib_a-writer.o)
 .ARM.attributes
                0x000009e2       0x34 d:/gnu/gcc-arm-none-eabi-7-2017-q4-major-win32/bin/../lib/gcc/arm-none-eabi/7.2.1/../../../../arm-none-eabi/lib/thumb/v7e-m/fpv4-sp/hard\libg_nano.a(lib_a-wsetup.o)
 .ARM.attributes
                0x00000a16       0x34 d:/gnu/gcc-arm-none-eabi-7-2017-q4-major-win32/bin/../lib/gcc/arm-none-eabi/7.2.1/../../../../arm-none-eabi/lib/thumb/v7e-m/fpv4-sp/hard\libg_nano.a(lib_a-closer.o)
 .ARM.attributes
                0x00000a4a       0x34 d:/gnu/gcc-arm-none-eabi-7-2017-q4-major-win32/bin/../lib/gcc/arm-none-eabi/7.2.1/../../../../arm-none-eabi/lib/thumb/v7e-m/fpv4-sp/hard\libg_nano.a(lib_a-ctype_.o)
 .ARM.attributes
                0x00000a7e       0x34 d:/gnu/gcc-arm-none-eabi-7-2017-q4-major-win32/bin/../lib/gcc/arm-none-eabi/7.2.1/../../../../arm-none-eabi/lib/thumb/v7e-m/fpv4-sp/hard\libg_nano.a(lib_a-environ.o)
 .ARM.attributes
                0x00000ab2       0x34 d:/gnu/gcc-arm-none-eabi-7-2017-q4-major-win32/bin/../lib/gcc/arm-none-eabi/7.2.1/../../../../arm-none-eabi/lib/thumb/v7e-m/fpv4-sp/hard\libg_nano.a(lib_a-envlock.o)
 .ARM.attributes
                0x00000ae6       0x34 d:/gnu/gcc-arm-none-eabi-7-2017-q4-major-win32/bin/../lib/gcc/arm-none-eabi/7.2.1/../../../../arm-none-eabi/lib/thumb/v7e-m/fpv4-sp/hard\libg_nano.a(lib_a-fflush.o)
 .ARM.attributes
                0x00000b1a       0x34 d:/gnu/gcc-arm-none-eabi-7-2017-q4-major-win32/bin/../lib/gcc/arm-none-eabi/7.2.1/../../../../arm-none-eabi/lib/thumb/v7e-m/fpv4-sp/hard\libg_nano.a(lib_a-lseekr.o)
 .ARM.attributes
                0x00000b4e       0x34 d:/gnu/gcc-arm-none-eabi-7-2017-q4-major-win32/bin/../lib/gcc/arm-none-eabi/7.2.1/../../../../arm-none-eabi/lib/thumb/v7e-m/fpv4-sp/hard\libg_nano.a(lib_a-makebuf.o)
 .ARM.attributes
                0x00000b82       0x20 d:/gnu/gcc-arm-none-eabi-7-2017-q4-major-win32/bin/../lib/gcc/arm-none-eabi/7.2.1/../../../../arm-none-eabi/lib/thumb/v7e-m/fpv4-sp/hard\libg_nano.a(lib_a-memchr.o)
 .ARM.attributes
                0x00000ba2       0x34 d:/gnu/gcc-arm-none-eabi-7-2017-q4-major-win32/bin/../lib/gcc/arm-none-eabi/7.2.1/../../../../arm-none-eabi/lib/thumb/v7e-m/fpv4-sp/hard\libg_nano.a(lib_a-nano-msizer.o)
 .ARM.attributes
                0x00000bd6       0x34 d:/gnu/gcc-arm-none-eabi-7-2017-q4-major-win32/bin/../lib/gcc/arm-none-eabi/7.2.1/../../../../arm-none-eabi/lib/thumb/v7e-m/fpv4-sp/hard\libg_nano.a(lib_a-nano-svfscanf.o)
 .ARM.attributes
                0x00000c0a       0x34 d:/gnu/gcc-arm-none-eabi-7-2017-q4-major-win32/bin/../lib/gcc/arm-none-eabi/7.2.1/../../../../arm-none-eabi/lib/thumb/v7e-m/fpv4-sp/hard\libg_nano.a(lib_a-nano-vfscanf_i.o)
 .ARM.attributes
                0x00000c3e       0x34 d:/gnu/gcc-arm-none-eabi-7-2017-q4-major-win32/bin/../lib/gcc/arm-none-eabi/7.2.1/../../../../arm-none-eabi/lib/thumb/v7e-m/fpv4-sp/hard\libg_nano.a(lib_a-readr.o)
 .ARM.attributes
                0x00000c72       0x34 d:/gnu/gcc-arm-none-eabi-7-2017-q4-major-win32/bin/../lib/gcc/arm-none-eabi/7.2.1/../../../../arm-none-eabi/lib/thumb/v7e-m/fpv4-sp/hard\libg_nano.a(lib_a-sccl.o)
 .ARM.attributes
                0x00000ca6       0x34 d:/gnu/gcc-arm-none-eabi-7-2017-q4-major-win32/bin/../lib/gcc/arm-none-eabi/7.2.1/../../../../arm-none-eabi/lib/thumb/v7e-m/fpv4-sp/hard\libg_nano.a(lib_a-ungetc.o)
 .ARM.attributes
                0x00000cda       0x34 d:/gnu/gcc-arm-none-eabi-7-2017-q4-major-win32/bin/../lib/gcc/arm-none-eabi/7.2.1/../../../../arm-none-eabi/lib/thumb/v7e-m/fpv4-sp/hard\libg_nano.a(lib_a-fstatr.o)
 .ARM.attributes
                0x00000d0e       0x34 d:/gnu/gcc-arm-none-eabi-7-2017-q4-major-win32/bin/../lib/gcc/arm-none-eabi/7.2.1/../../../../arm-none-eabi/lib/thumb/v7e-m/fpv4-sp/hard\libg_nano.a(lib_a-isattyr.o)
 .ARM.attributes
                0x00000d42       0x22 d:/gnu/gcc-arm-none-eabi-7-2017-q4-major-win32/bin/../lib/gcc/arm-none-eabi/7.2.1/thumb/v7e-m/fpv4-sp/hard\libgcc.a(_aeabi_ldivmod.o)
 .ARM.attributes
                0x00000d64       0x34 d:/gnu/gcc-arm-none-eabi-7-2017-q4-major-win32/bin/../lib/gcc/arm-none-eabi/7.2.1/thumb/v7e-m/fpv4-sp/hard\libgcc.a(_udivmoddi4.o)
 .ARM.attributes
                0x00000d98       0x22 d:/gnu/gcc-arm-none-eabi-7-2017-q4-major-win32/bin/../lib/gcc/arm-none-eabi/7.2.1/thumb/v7e-m/fpv4-sp/hard\libgcc.a(_dvmd_tls.o)
 .ARM.attributes
                0x00000dba       0x22 d:/gnu/gcc-arm-none-eabi-7-2017-q4-major-win32/bin/../lib/gcc/arm-none-eabi/7.2.1/thumb/v7e-m/fpv4-sp/hard\libgcc.a(_aeabi_uldivmod.o)
 .ARM.attributes
                0x00000ddc       0x22 d:/gnu/gcc-arm-none-eabi-7-2017-q4-major-win32/bin/../lib/gcc/arm-none-eabi/7.2.1/thumb/v7e-m/fpv4-sp/hard/crtn.o
OUTPUT(iTU-FX-Main-GCC.elf elf32-littlearm)

.debug_info     0x00000000    0x40e49
 .debug_info    0x00000000    0x10df3 C:\Users\alien\AppData\Local\Temp\ccodVkrc.ltrans0.ltrans.o
 .debug_info    0x00010df3    0x1387f C:\Users\alien\AppData\Local\Temp\ccodVkrc.ltrans1.ltrans.o
 .debug_info    0x00024672     0xe61c C:\Users\alien\AppData\Local\Temp\ccodVkrc.ltrans2.ltrans.o
 .debug_info    0x00032c8e     0xe199 C:\Users\alien\AppData\Local\Temp\ccodVkrc.ltrans3.ltrans.o
 .debug_info    0x00040e27       0x22 ./startup_stm32f407xx.o

.debug_abbrev   0x00000000     0x220d
 .debug_abbrev  0x00000000      0x9c6 C:\Users\alien\AppData\Local\Temp\ccodVkrc.ltrans0.ltrans.o
 .debug_abbrev  0x000009c6      0x8c8 C:\Users\alien\AppData\Local\Temp\ccodVkrc.ltrans1.ltrans.o
 .debug_abbrev  0x0000128e      0x9e3 C:\Users\alien\AppData\Local\Temp\ccodVkrc.ltrans2.ltrans.o
 .debug_abbrev  0x00001c71      0x58a C:\Users\alien\AppData\Local\Temp\ccodVkrc.ltrans3.ltrans.o
 .debug_abbrev  0x000021fb       0x12 ./startup_stm32f407xx.o

.debug_loc      0x00000000    0x2127a
 .debug_loc     0x00000000     0x7e9b C:\Users\alien\AppData\Local\Temp\ccodVkrc.ltrans0.ltrans.o
 .debug_loc     0x00007e9b     0x91c3 C:\Users\alien\AppData\Local\Temp\ccodVkrc.ltrans1.ltrans.o
 .debug_loc     0x0001105e     0x9606 C:\Users\alien\AppData\Local\Temp\ccodVkrc.ltrans2.ltrans.o
 .debug_loc     0x0001a664     0x6c16 C:\Users\alien\AppData\Local\Temp\ccodVkrc.ltrans3.ltrans.o

.debug_aranges  0x00000000      0xe30
 .debug_aranges
                0x00000000      0x318 C:\Users\alien\AppData\Local\Temp\ccodVkrc.ltrans0.ltrans.o
 .debug_aranges
                0x00000318      0x468 C:\Users\alien\AppData\Local\Temp\ccodVkrc.ltrans1.ltrans.o
 .debug_aranges
                0x00000780      0x4c0 C:\Users\alien\AppData\Local\Temp\ccodVkrc.ltrans2.ltrans.o
 .debug_aranges
                0x00000c40      0x1c8 C:\Users\alien\AppData\Local\Temp\ccodVkrc.ltrans3.ltrans.o
 .debug_aranges
                0x00000e08       0x28 ./startup_stm32f407xx.o

.debug_ranges   0x00000000     0x4f18
 .debug_ranges  0x00000000     0x19e0 C:\Users\alien\AppData\Local\Temp\ccodVkrc.ltrans0.ltrans.o
 .debug_ranges  0x000019e0     0x18f0 C:\Users\alien\AppData\Local\Temp\ccodVkrc.ltrans1.ltrans.o
 .debug_ranges  0x000032d0     0x1370 C:\Users\alien\AppData\Local\Temp\ccodVkrc.ltrans2.ltrans.o
 .debug_ranges  0x00004640      0x8b8 C:\Users\alien\AppData\Local\Temp\ccodVkrc.ltrans3.ltrans.o
 .debug_ranges  0x00004ef8       0x20 ./startup_stm32f407xx.o

.debug_line     0x00000000     0xad1a
 .debug_line    0x00000000     0x32ae C:\Users\alien\AppData\Local\Temp\ccodVkrc.ltrans0.ltrans.o
 .debug_line    0x000032ae     0x2bfb C:\Users\alien\AppData\Local\Temp\ccodVkrc.ltrans1.ltrans.o
 .debug_line    0x00005ea9     0x2fd9 C:\Users\alien\AppData\Local\Temp\ccodVkrc.ltrans2.ltrans.o
 .debug_line    0x00008e82     0x1e21 C:\Users\alien\AppData\Local\Temp\ccodVkrc.ltrans3.ltrans.o
 .debug_line    0x0000aca3       0x77 ./startup_stm32f407xx.o

.debug_str      0x00000000     0xf674
 .debug_str     0x00000000     0x57a8 C:\Users\alien\AppData\Local\Temp\ccodVkrc.ltrans0.ltrans.o
                               0x5e06 (size before relaxing)
 .debug_str     0x000057a8     0x4c09 C:\Users\alien\AppData\Local\Temp\ccodVkrc.ltrans1.ltrans.o
                               0x7c68 (size before relaxing)
 .debug_str     0x0000a3b1     0x29b8 C:\Users\alien\AppData\Local\Temp\ccodVkrc.ltrans2.ltrans.o
                               0x5698 (size before relaxing)
 .debug_str     0x0000cd69     0x28ae C:\Users\alien\AppData\Local\Temp\ccodVkrc.ltrans3.ltrans.o
                               0x678d (size before relaxing)
 .debug_str     0x0000f617       0x5d ./startup_stm32f407xx.o

.comment        0x00000000       0x7e
 .comment       0x00000000       0x7e C:\Users\alien\AppData\Local\Temp\ccodVkrc.ltrans0.ltrans.o
                                 0x7f (size before relaxing)
 .comment       0x0000007e       0x7f C:\Users\alien\AppData\Local\Temp\ccodVkrc.ltrans1.ltrans.o
 .comment       0x0000007e       0x7f C:\Users\alien\AppData\Local\Temp\ccodVkrc.ltrans2.ltrans.o
 .comment       0x0000007e       0x7f C:\Users\alien\AppData\Local\Temp\ccodVkrc.ltrans3.ltrans.o

.debug_frame    0x00000000     0x4448
 .debug_frame   0x00000000      0xb84 C:\Users\alien\AppData\Local\Temp\ccodVkrc.ltrans0.ltrans.o
 .debug_frame   0x00000b84     0x1108 C:\Users\alien\AppData\Local\Temp\ccodVkrc.ltrans1.ltrans.o
 .debug_frame   0x00001c8c     0x1180 C:\Users\alien\AppData\Local\Temp\ccodVkrc.ltrans2.ltrans.o
 .debug_frame   0x00002e0c      0x6fc C:\Users\alien\AppData\Local\Temp\ccodVkrc.ltrans3.ltrans.o
 .debug_frame   0x00003508       0x20 d:/gnu/gcc-arm-none-eabi-7-2017-q4-major-win32/bin/../lib/gcc/arm-none-eabi/7.2.1/../../../../arm-none-eabi/lib/thumb/v7e-m/fpv4-sp/hard\libg_nano.a(lib_a-calloc.o)
 .debug_frame   0x00003528       0x2c d:/gnu/gcc-arm-none-eabi-7-2017-q4-major-win32/bin/../lib/gcc/arm-none-eabi/7.2.1/../../../../arm-none-eabi/lib/thumb/v7e-m/fpv4-sp/hard\libg_nano.a(lib_a-init.o)
 .debug_frame   0x00003554       0x30 d:/gnu/gcc-arm-none-eabi-7-2017-q4-major-win32/bin/../lib/gcc/arm-none-eabi/7.2.1/../../../../arm-none-eabi/lib/thumb/v7e-m/fpv4-sp/hard\libg_nano.a(lib_a-lcltime_r.o)
 .debug_frame   0x00003584       0x2c d:/gnu/gcc-arm-none-eabi-7-2017-q4-major-win32/bin/../lib/gcc/arm-none-eabi/7.2.1/../../../../arm-none-eabi/lib/thumb/v7e-m/fpv4-sp/hard\libg_nano.a(lib_a-memcmp.o)
 .debug_frame   0x000035b0       0x28 d:/gnu/gcc-arm-none-eabi-7-2017-q4-major-win32/bin/../lib/gcc/arm-none-eabi/7.2.1/../../../../arm-none-eabi/lib/thumb/v7e-m/fpv4-sp/hard\libg_nano.a(lib_a-memcpy-stub.o)
 .debug_frame   0x000035d8       0x20 d:/gnu/gcc-arm-none-eabi-7-2017-q4-major-win32/bin/../lib/gcc/arm-none-eabi/7.2.1/../../../../arm-none-eabi/lib/thumb/v7e-m/fpv4-sp/hard\libg_nano.a(lib_a-memset.o)
 .debug_frame   0x000035f8       0x2c d:/gnu/gcc-arm-none-eabi-7-2017-q4-major-win32/bin/../lib/gcc/arm-none-eabi/7.2.1/../../../../arm-none-eabi/lib/thumb/v7e-m/fpv4-sp/hard\libg_nano.a(lib_a-nano-callocr.o)
 .debug_frame   0x00003624       0x2c d:/gnu/gcc-arm-none-eabi-7-2017-q4-major-win32/bin/../lib/gcc/arm-none-eabi/7.2.1/../../../../arm-none-eabi/lib/thumb/v7e-m/fpv4-sp/hard\libg_nano.a(lib_a-nano-mallocr.o)
 .debug_frame   0x00003650       0x74 d:/gnu/gcc-arm-none-eabi-7-2017-q4-major-win32/bin/../lib/gcc/arm-none-eabi/7.2.1/../../../../arm-none-eabi/lib/thumb/v7e-m/fpv4-sp/hard\libg_nano.a(lib_a-printf.o)
 .debug_frame   0x000036c4       0x48 d:/gnu/gcc-arm-none-eabi-7-2017-q4-major-win32/bin/../lib/gcc/arm-none-eabi/7.2.1/../../../../arm-none-eabi/lib/thumb/v7e-m/fpv4-sp/hard\libg_nano.a(lib_a-rand.o)
 .debug_frame   0x0000370c       0x2c d:/gnu/gcc-arm-none-eabi-7-2017-q4-major-win32/bin/../lib/gcc/arm-none-eabi/7.2.1/../../../../arm-none-eabi/lib/thumb/v7e-m/fpv4-sp/hard\libg_nano.a(lib_a-sbrkr.o)
 .debug_frame   0x00003738       0x20 d:/gnu/gcc-arm-none-eabi-7-2017-q4-major-win32/bin/../lib/gcc/arm-none-eabi/7.2.1/../../../../arm-none-eabi/lib/thumb/v7e-m/fpv4-sp/hard\libg_nano.a(lib_a-strcpy.o)
 .debug_frame   0x00003758       0x28 d:/gnu/gcc-arm-none-eabi-7-2017-q4-major-win32/bin/../lib/gcc/arm-none-eabi/7.2.1/../../../../arm-none-eabi/lib/thumb/v7e-m/fpv4-sp/hard\libg_nano.a(lib_a-strncmp.o)
 .debug_frame   0x00003780       0x2c d:/gnu/gcc-arm-none-eabi-7-2017-q4-major-win32/bin/../lib/gcc/arm-none-eabi/7.2.1/../../../../arm-none-eabi/lib/thumb/v7e-m/fpv4-sp/hard\libg_nano.a(lib_a-strncpy.o)
 .debug_frame   0x000037ac       0x84 d:/gnu/gcc-arm-none-eabi-7-2017-q4-major-win32/bin/../lib/gcc/arm-none-eabi/7.2.1/../../../../arm-none-eabi/lib/thumb/v7e-m/fpv4-sp/hard\libg_nano.a(lib_a-strtol.o)
 .debug_frame   0x00003830       0x3c d:/gnu/gcc-arm-none-eabi-7-2017-q4-major-win32/bin/../lib/gcc/arm-none-eabi/7.2.1/../../../../arm-none-eabi/lib/thumb/v7e-m/fpv4-sp/hard\libg_nano.a(lib_a-tzcalc_limits.o)
 .debug_frame   0x0000386c       0x30 d:/gnu/gcc-arm-none-eabi-7-2017-q4-major-win32/bin/../lib/gcc/arm-none-eabi/7.2.1/../../../../arm-none-eabi/lib/thumb/v7e-m/fpv4-sp/hard\libg_nano.a(lib_a-tzlock.o)
 .debug_frame   0x0000389c       0x3c d:/gnu/gcc-arm-none-eabi-7-2017-q4-major-win32/bin/../lib/gcc/arm-none-eabi/7.2.1/../../../../arm-none-eabi/lib/thumb/v7e-m/fpv4-sp/hard\libg_nano.a(lib_a-tzset.o)
 .debug_frame   0x000038d8       0x5c d:/gnu/gcc-arm-none-eabi-7-2017-q4-major-win32/bin/../lib/gcc/arm-none-eabi/7.2.1/../../../../arm-none-eabi/lib/thumb/v7e-m/fpv4-sp/hard\libg_nano.a(lib_a-tzset_r.o)
 .debug_frame   0x00003934      0x11c d:/gnu/gcc-arm-none-eabi-7-2017-q4-major-win32/bin/../lib/gcc/arm-none-eabi/7.2.1/../../../../arm-none-eabi/lib/thumb/v7e-m/fpv4-sp/hard\libg_nano.a(lib_a-findfp.o)
 .debug_frame   0x00003a50       0x54 d:/gnu/gcc-arm-none-eabi-7-2017-q4-major-win32/bin/../lib/gcc/arm-none-eabi/7.2.1/../../../../arm-none-eabi/lib/thumb/v7e-m/fpv4-sp/hard\libg_nano.a(lib_a-fwalk.o)
 .debug_frame   0x00003aa4       0x50 d:/gnu/gcc-arm-none-eabi-7-2017-q4-major-win32/bin/../lib/gcc/arm-none-eabi/7.2.1/../../../../arm-none-eabi/lib/thumb/v7e-m/fpv4-sp/hard\libg_nano.a(lib_a-getenv_r.o)
 .debug_frame   0x00003af4       0x20 d:/gnu/gcc-arm-none-eabi-7-2017-q4-major-win32/bin/../lib/gcc/arm-none-eabi/7.2.1/../../../../arm-none-eabi/lib/thumb/v7e-m/fpv4-sp/hard\libg_nano.a(lib_a-gettzinfo.o)
 .debug_frame   0x00003b14       0x34 d:/gnu/gcc-arm-none-eabi-7-2017-q4-major-win32/bin/../lib/gcc/arm-none-eabi/7.2.1/../../../../arm-none-eabi/lib/thumb/v7e-m/fpv4-sp/hard\libg_nano.a(lib_a-gmtime_r.o)
 .debug_frame   0x00003b48       0x68 d:/gnu/gcc-arm-none-eabi-7-2017-q4-major-win32/bin/../lib/gcc/arm-none-eabi/7.2.1/../../../../arm-none-eabi/lib/thumb/v7e-m/fpv4-sp/hard\libg_nano.a(lib_a-locale.o)
 .debug_frame   0x00003bb0       0x30 d:/gnu/gcc-arm-none-eabi-7-2017-q4-major-win32/bin/../lib/gcc/arm-none-eabi/7.2.1/../../../../arm-none-eabi/lib/thumb/v7e-m/fpv4-sp/hard\libg_nano.a(lib_a-malloc.o)
 .debug_frame   0x00003be0       0x48 d:/gnu/gcc-arm-none-eabi-7-2017-q4-major-win32/bin/../lib/gcc/arm-none-eabi/7.2.1/../../../../arm-none-eabi/lib/thumb/v7e-m/fpv4-sp/hard\libg_nano.a(lib_a-mbtowc_r.o)
 .debug_frame   0x00003c28       0x30 d:/gnu/gcc-arm-none-eabi-7-2017-q4-major-win32/bin/../lib/gcc/arm-none-eabi/7.2.1/../../../../arm-none-eabi/lib/thumb/v7e-m/fpv4-sp/hard\libg_nano.a(lib_a-mlock.o)
 .debug_frame   0x00003c58       0x38 d:/gnu/gcc-arm-none-eabi-7-2017-q4-major-win32/bin/../lib/gcc/arm-none-eabi/7.2.1/../../../../arm-none-eabi/lib/thumb/v7e-m/fpv4-sp/hard\libg_nano.a(lib_a-nano-freer.o)
 .debug_frame   0x00003c90       0x3c d:/gnu/gcc-arm-none-eabi-7-2017-q4-major-win32/bin/../lib/gcc/arm-none-eabi/7.2.1/../../../../arm-none-eabi/lib/thumb/v7e-m/fpv4-sp/hard\libg_nano.a(lib_a-nano-reallocr.o)
 .debug_frame   0x00003ccc       0xac d:/gnu/gcc-arm-none-eabi-7-2017-q4-major-win32/bin/../lib/gcc/arm-none-eabi/7.2.1/../../../../arm-none-eabi/lib/thumb/v7e-m/fpv4-sp/hard\libg_nano.a(lib_a-nano-vfprintf.o)
 .debug_frame   0x00003d78       0x60 d:/gnu/gcc-arm-none-eabi-7-2017-q4-major-win32/bin/../lib/gcc/arm-none-eabi/7.2.1/../../../../arm-none-eabi/lib/thumb/v7e-m/fpv4-sp/hard\libg_nano.a(lib_a-nano-vfprintf_i.o)
 .debug_frame   0x00003dd8       0x80 d:/gnu/gcc-arm-none-eabi-7-2017-q4-major-win32/bin/../lib/gcc/arm-none-eabi/7.2.1/../../../../arm-none-eabi/lib/thumb/v7e-m/fpv4-sp/hard\libg_nano.a(lib_a-sscanf.o)
 .debug_frame   0x00003e58       0x88 d:/gnu/gcc-arm-none-eabi-7-2017-q4-major-win32/bin/../lib/gcc/arm-none-eabi/7.2.1/../../../../arm-none-eabi/lib/thumb/v7e-m/fpv4-sp/hard\libg_nano.a(lib_a-stdio.o)
 .debug_frame   0x00003ee0       0x20 d:/gnu/gcc-arm-none-eabi-7-2017-q4-major-win32/bin/../lib/gcc/arm-none-eabi/7.2.1/../../../../arm-none-eabi/lib/thumb/v7e-m/fpv4-sp/hard\libg_nano.a(lib_a-strcmp.o)
 .debug_frame   0x00003f00       0x84 d:/gnu/gcc-arm-none-eabi-7-2017-q4-major-win32/bin/../lib/gcc/arm-none-eabi/7.2.1/../../../../arm-none-eabi/lib/thumb/v7e-m/fpv4-sp/hard\libg_nano.a(lib_a-strtoul.o)
 .debug_frame   0x00003f84       0x40 d:/gnu/gcc-arm-none-eabi-7-2017-q4-major-win32/bin/../lib/gcc/arm-none-eabi/7.2.1/../../../../arm-none-eabi/lib/thumb/v7e-m/fpv4-sp/hard\libg_nano.a(lib_a-wbuf.o)
 .debug_frame   0x00003fc4       0x3c d:/gnu/gcc-arm-none-eabi-7-2017-q4-major-win32/bin/../lib/gcc/arm-none-eabi/7.2.1/../../../../arm-none-eabi/lib/thumb/v7e-m/fpv4-sp/hard\libg_nano.a(lib_a-wctomb_r.o)
 .debug_frame   0x00004000       0x2c d:/gnu/gcc-arm-none-eabi-7-2017-q4-major-win32/bin/../lib/gcc/arm-none-eabi/7.2.1/../../../../arm-none-eabi/lib/thumb/v7e-m/fpv4-sp/hard\libg_nano.a(lib_a-writer.o)
 .debug_frame   0x0000402c       0x2c d:/gnu/gcc-arm-none-eabi-7-2017-q4-major-win32/bin/../lib/gcc/arm-none-eabi/7.2.1/../../../../arm-none-eabi/lib/thumb/v7e-m/fpv4-sp/hard\libg_nano.a(lib_a-wsetup.o)
 .debug_frame   0x00004058       0x2c d:/gnu/gcc-arm-none-eabi-7-2017-q4-major-win32/bin/../lib/gcc/arm-none-eabi/7.2.1/../../../../arm-none-eabi/lib/thumb/v7e-m/fpv4-sp/hard\libg_nano.a(lib_a-closer.o)
 .debug_frame   0x00004084       0x30 d:/gnu/gcc-arm-none-eabi-7-2017-q4-major-win32/bin/../lib/gcc/arm-none-eabi/7.2.1/../../../../arm-none-eabi/lib/thumb/v7e-m/fpv4-sp/hard\libg_nano.a(lib_a-envlock.o)
 .debug_frame   0x000040b4       0x68 d:/gnu/gcc-arm-none-eabi-7-2017-q4-major-win32/bin/../lib/gcc/arm-none-eabi/7.2.1/../../../../arm-none-eabi/lib/thumb/v7e-m/fpv4-sp/hard\libg_nano.a(lib_a-fflush.o)
 .debug_frame   0x0000411c       0x2c d:/gnu/gcc-arm-none-eabi-7-2017-q4-major-win32/bin/../lib/gcc/arm-none-eabi/7.2.1/../../../../arm-none-eabi/lib/thumb/v7e-m/fpv4-sp/hard\libg_nano.a(lib_a-lseekr.o)
 .debug_frame   0x00004148       0x58 d:/gnu/gcc-arm-none-eabi-7-2017-q4-major-win32/bin/../lib/gcc/arm-none-eabi/7.2.1/../../../../arm-none-eabi/lib/thumb/v7e-m/fpv4-sp/hard\libg_nano.a(lib_a-makebuf.o)
 .debug_frame   0x000041a0       0x20 d:/gnu/gcc-arm-none-eabi-7-2017-q4-major-win32/bin/../lib/gcc/arm-none-eabi/7.2.1/../../../../arm-none-eabi/lib/thumb/v7e-m/fpv4-sp/hard\libg_nano.a(lib_a-nano-msizer.o)
 .debug_frame   0x000041c0       0x78 d:/gnu/gcc-arm-none-eabi-7-2017-q4-major-win32/bin/../lib/gcc/arm-none-eabi/7.2.1/../../../../arm-none-eabi/lib/thumb/v7e-m/fpv4-sp/hard\libg_nano.a(lib_a-nano-svfscanf.o)
 .debug_frame   0x00004238       0x60 d:/gnu/gcc-arm-none-eabi-7-2017-q4-major-win32/bin/../lib/gcc/arm-none-eabi/7.2.1/../../../../arm-none-eabi/lib/thumb/v7e-m/fpv4-sp/hard\libg_nano.a(lib_a-nano-vfscanf_i.o)
 .debug_frame   0x00004298       0x2c d:/gnu/gcc-arm-none-eabi-7-2017-q4-major-win32/bin/../lib/gcc/arm-none-eabi/7.2.1/../../../../arm-none-eabi/lib/thumb/v7e-m/fpv4-sp/hard\libg_nano.a(lib_a-readr.o)
 .debug_frame   0x000042c4       0x2c d:/gnu/gcc-arm-none-eabi-7-2017-q4-major-win32/bin/../lib/gcc/arm-none-eabi/7.2.1/../../../../arm-none-eabi/lib/thumb/v7e-m/fpv4-sp/hard\libg_nano.a(lib_a-sccl.o)
 .debug_frame   0x000042f0       0x5c d:/gnu/gcc-arm-none-eabi-7-2017-q4-major-win32/bin/../lib/gcc/arm-none-eabi/7.2.1/../../../../arm-none-eabi/lib/thumb/v7e-m/fpv4-sp/hard\libg_nano.a(lib_a-ungetc.o)
 .debug_frame   0x0000434c       0x2c d:/gnu/gcc-arm-none-eabi-7-2017-q4-major-win32/bin/../lib/gcc/arm-none-eabi/7.2.1/../../../../arm-none-eabi/lib/thumb/v7e-m/fpv4-sp/hard\libg_nano.a(lib_a-fstatr.o)
 .debug_frame   0x00004378       0x2c d:/gnu/gcc-arm-none-eabi-7-2017-q4-major-win32/bin/../lib/gcc/arm-none-eabi/7.2.1/../../../../arm-none-eabi/lib/thumb/v7e-m/fpv4-sp/hard\libg_nano.a(lib_a-isattyr.o)
 .debug_frame   0x000043a4       0x44 d:/gnu/gcc-arm-none-eabi-7-2017-q4-major-win32/bin/../lib/gcc/arm-none-eabi/7.2.1/thumb/v7e-m/fpv4-sp/hard\libgcc.a(_aeabi_ldivmod.o)
 .debug_frame   0x000043e8       0x34 d:/gnu/gcc-arm-none-eabi-7-2017-q4-major-win32/bin/../lib/gcc/arm-none-eabi/7.2.1/thumb/v7e-m/fpv4-sp/hard\libgcc.a(_udivmoddi4.o)
 .debug_frame   0x0000441c       0x2c d:/gnu/gcc-arm-none-eabi-7-2017-q4-major-win32/bin/../lib/gcc/arm-none-eabi/7.2.1/thumb/v7e-m/fpv4-sp/hard\libgcc.a(_aeabi_uldivmod.o)
